
build/os/os:     file format elf32-i386


Disassembly of section .text:

00000500 <main>:
 500:	55                   	push   %ebp
 501:	89 e5                	mov    %esp,%ebp
 503:	e8 08 00 00 00       	call   510 <__x86.get_pc_thunk.ax>
 508:	05 0c 00 00 00       	add    $0xc,%eax
 50d:	90                   	nop
 50e:	5d                   	pop    %ebp
 50f:	c3                   	ret    

Disassembly of section .text.__x86.get_pc_thunk.ax:

00000510 <__x86.get_pc_thunk.ax>:
 510:	8b 04 24             	mov    (%esp),%eax
 513:	c3                   	ret    

Disassembly of section .got.plt:

00000514 <_GLOBAL_OFFSET_TABLE_>:
	...

Disassembly of section .debug_info:

00000000 <.debug_info>:
   0:	38 00                	cmp    %al,(%eax)
   2:	00 00                	add    %al,(%eax)
   4:	04 00                	add    $0x0,%al
   6:	00 00                	add    %al,(%eax)
   8:	00 00                	add    %al,(%eax)
   a:	04 01                	add    $0x1,%al
   c:	e6 0b                	out    %al,$0xb
   e:	00 00                	add    %al,(%eax)
  10:	0c 5d                	or     $0x5d,%al
  12:	1d 00 00 74 13       	sbb    $0x13740000,%eax
  17:	00 00                	add    %al,(%eax)
  19:	00 05 00 00 10 00    	add    %al,0x100000
	...
  27:	00 00                	add    %al,(%eax)
  29:	02 99 27 00 00 01    	add    0x1000027(%ecx),%bl
  2f:	01 06                	add    %eax,(%esi)
  31:	00 05 00 00 10 00    	add    %al,0x100000
  37:	00 00                	add    %al,(%eax)
  39:	01                   	.byte 0x1
  3a:	9c                   	pushf  
	...

Disassembly of section .debug_abbrev:

00000000 <.debug_abbrev>:
   0:	01 11                	add    %edx,(%ecx)
   2:	01 25 0e 13 0b 03    	add    %esp,0x30b130e
   8:	0e                   	push   %cs
   9:	1b 0e                	sbb    (%esi),%ecx
   b:	11 01                	adc    %eax,(%ecx)
   d:	12 06                	adc    (%esi),%al
   f:	10 17                	adc    %dl,(%edi)
  11:	99                   	cltd   
  12:	42                   	inc    %edx
  13:	17                   	pop    %ss
  14:	00 00                	add    %al,(%eax)
  16:	02 2e                	add    (%esi),%ch
  18:	00 3f                	add    %bh,(%edi)
  1a:	19 03                	sbb    %eax,(%ebx)
  1c:	0e                   	push   %cs
  1d:	3a 0b                	cmp    (%ebx),%cl
  1f:	3b 0b                	cmp    (%ebx),%ecx
  21:	39 0b                	cmp    %ecx,(%ebx)
  23:	11 01                	adc    %eax,(%ecx)
  25:	12 06                	adc    (%esi),%al
  27:	40                   	inc    %eax
  28:	18 97 42 19 00 00    	sbb    %dl,0x1942(%edi)
	...

Disassembly of section .debug_aranges:

00000000 <.debug_aranges>:
   0:	1c 00                	sbb    $0x0,%al
   2:	00 00                	add    %al,(%eax)
   4:	02 00                	add    (%eax),%al
   6:	00 00                	add    %al,(%eax)
   8:	00 00                	add    %al,(%eax)
   a:	04 00                	add    $0x0,%al
   c:	00 00                	add    %al,(%eax)
   e:	00 00                	add    %al,(%eax)
  10:	00 05 00 00 10 00    	add    %al,0x100000
	...

Disassembly of section .debug_macro:

00000000 <.debug_macro>:
   0:	04 00                	add    $0x0,%al
   2:	02 00                	add    (%eax),%al
   4:	00 00                	add    %al,(%eax)
   6:	00 07                	add    %al,(%edi)
   8:	11 00                	adc    %eax,(%eax)
   a:	00 00                	add    %al,(%eax)
   c:	03 00                	add    (%eax),%eax
   e:	01 04 00             	add    %eax,(%eax,%eax,1)
  11:	04 00                	add    $0x0,%al
  13:	00 05 00 89 1c 00    	add    %al,0x1c8900
  19:	00 05 00 31 04 00    	add    %al,0x43100
  1f:	00 05 00 99 20 00    	add    %al,0x209900
  25:	00 05 00 f9 21 00    	add    %al,0x21f900
  2b:	00 05 00 38 10 00    	add    %al,0x103800
  31:	00 05 00 a2 0f 00    	add    %al,0xfa200
  37:	00 05 00 1a 0f 00    	add    %al,0xf1a00
  3d:	00 05 00 5e 13 00    	add    %al,0x135e00
  43:	00 05 00 5e 08 00    	add    %al,0x85e00
  49:	00 05 00 4a 1d 00    	add    %al,0x1d4a00
  4f:	00 05 00 b9 02 00    	add    %al,0x2b900
  55:	00 05 00 78 17 00    	add    %al,0x177800
  5b:	00 05 00 18 0e 00    	add    %al,0xe1800
  61:	00 05 00 7d 25 00    	add    %al,0x257d00
  67:	00 05 00 81 21 00    	add    %al,0x218100
  6d:	00 05 00 39 11 00    	add    %al,0x113900
  73:	00 05 00 81 0c 00    	add    %al,0xc8100
  79:	00 05 00 59 1b 00    	add    %al,0x1b5900
  7f:	00 05 00 54 16 00    	add    %al,0x165400
  85:	00 05 00 e9 03 00    	add    %al,0x3e900
  8b:	00 05 00 20 14 00    	add    %al,0x142000
  91:	00 05 00 26 10 00    	add    %al,0x102600
  97:	00 05 00 98 0d 00    	add    %al,0xd9800
  9d:	00 05 00 e1 11 00    	add    %al,0x11e100
  a3:	00 05 00 d8 1b 00    	add    %al,0x1bd800
  a9:	00 05 00 62 0b 00    	add    %al,0xb6200
  af:	00 05 00 c6 10 00    	add    %al,0x10c600
  b5:	00 05 00 71 00 00    	add    %al,0x7100
  bb:	00 05 00 0b 04 00    	add    %al,0x40b00
  c1:	00 05 00 07 14 00    	add    %al,0x140700
  c7:	00 05 00 ef 1c 00    	add    %al,0x1cef00
  cd:	00 05 00 e0 10 00    	add    %al,0x10e000
  d3:	00 05 00 94 1c 00    	add    %al,0x1c9400
  d9:	00 05 00 79 09 00    	add    %al,0x97900
  df:	00 05 00 0a 0a 00    	add    %al,0xa0a00
  e5:	00 05 00 0c 01 00    	add    %al,0x10c00
  eb:	00 05 00 ab 20 00    	add    %al,0x20ab00
  f1:	00 05 00 98 1f 00    	add    %al,0x1f9800
  f7:	00 05 00 29 06 00    	add    %al,0x62900
  fd:	00 05 00 d1 20 00    	add    %al,0x20d100
 103:	00 05 00 68 15 00    	add    %al,0x156800
 109:	00 05 00 0c 1d 00    	add    %al,0x1d0c00
 10f:	00 05 00 89 11 00    	add    %al,0x118900
 115:	00 05 00 20 0d 00    	add    %al,0xd2000
 11b:	00 05 00 fa 10 00    	add    %al,0x10fa00
 121:	00 05 00 08 1b 00    	add    %al,0x1b0800
 127:	00 05 00 cb 07 00    	add    %al,0x7cb00
 12d:	00 05 00 5f 09 00    	add    %al,0x95f00
 133:	00 05 00 80 15 00    	add    %al,0x158000
 139:	00 05 00 b8 07 00    	add    %al,0x7b800
 13f:	00 05 00 31 14 00    	add    %al,0x143100
 145:	00 05 00 07 15 00    	add    %al,0x150700
 14b:	00 05 00 0b 22 00    	add    %al,0x220b00
 151:	00 05 00 d0 05 00    	add    %al,0x5d000
 157:	00 05 00 25 02 00    	add    %al,0x22500
 15d:	00 05 00 7e 1b 00    	add    %al,0x1b7e00
 163:	00 05 00 6f 0a 00    	add    %al,0xa6f00
 169:	00 05 00 fb 18 00    	add    %al,0x18fb00
 16f:	00 05 00 27 1d 00    	add    %al,0x1d2700
 175:	00 05 00 38 27 00    	add    %al,0x273800
 17b:	00 05 00 5e 16 00    	add    %al,0x165e00
 181:	00 05 00 c8 26 00    	add    %al,0x26c800
 187:	00 05 00 0c 07 00    	add    %al,0x70c00
 18d:	00 05 00 87 16 00    	add    %al,0x168700
 193:	00 05 00 8e 0a 00    	add    %al,0xa8e00
 199:	00 05 00 b8 23 00    	add    %al,0x23b800
 19f:	00 05 00 cc 13 00    	add    %al,0x13cc00
 1a5:	00 05 00 b7 18 00    	add    %al,0x18b700
 1ab:	00 05 00 12 24 00    	add    %al,0x241200
 1b1:	00 05 00 d9 18 00    	add    %al,0x18d900
 1b7:	00 05 00 eb 26 00    	add    %al,0x26eb00
 1bd:	00 05 00 0c 0d 00    	add    %al,0xd0c00
 1c3:	00 05 00 06 1f 00    	add    %al,0x1f0600
 1c9:	00 05 00 3a 23 00    	add    %al,0x233a00
 1cf:	00 05 00 90 0e 00    	add    %al,0xe9000
 1d5:	00 05 00 ae 1b 00    	add    %al,0x1bae00
 1db:	00 05 00 d1 12 00    	add    %al,0x12d100
 1e1:	00 05 00 50 26 00    	add    %al,0x265000
 1e7:	00 05 00 5d 0f 00    	add    %al,0xf5d00
 1ed:	00 05 00 20 20 00    	add    %al,0x202000
 1f3:	00 05 00 6d 1a 00    	add    %al,0x1a6d00
 1f9:	00 05 00 62 1d 00    	add    %al,0x1d6200
 1ff:	00 05 00 51 0e 00    	add    %al,0xe5100
 205:	00 05 00 63 1b 00    	add    %al,0x1b6300
 20b:	00 05 00 89 0b 00    	add    %al,0xb8900
 211:	00 05 00 8f 06 00    	add    %al,0x68f00
 217:	00 05 00 91 07 00    	add    %al,0x79100
 21d:	00 05 00 f6 14 00    	add    %al,0x14f600
 223:	00 05 00 bd 0d 00    	add    %al,0xdbd00
 229:	00 05 00 c6 1f 00    	add    %al,0x1fc600
 22f:	00 05 00 5d 01 00    	add    %al,0x15d00
 235:	00 05 00 41 1a 00    	add    %al,0x1a4100
 23b:	00 05 00 69 26 00    	add    %al,0x266900
 241:	00 05 00 b6 0c 00    	add    %al,0xcb600
 247:	00 05 00 c4 0a 00    	add    %al,0xac400
 24d:	00 05 00 43 1b 00    	add    %al,0x1b4300
 253:	00 05 00 bc 17 00    	add    %al,0x17bc00
 259:	00 05 00 3f 03 00    	add    %al,0x33f00
 25f:	00 05 00 24 15 00    	add    %al,0x152400
 265:	00 05 00 4f 1e 00    	add    %al,0x1e4f00
 26b:	00 05 00 51 23 00    	add    %al,0x235100
 271:	00 05 00 48 0d 00    	add    %al,0xd4800
 277:	00 05 00 ba 24 00    	add    %al,0x24ba00
 27d:	00 05 00 81 14 00    	add    %al,0x148100
 283:	00 05 00 5d 28 00    	add    %al,0x285d00
 289:	00 05 00 a0 09 00    	add    %al,0x9a000
 28f:	00 05 00 76 0b 00    	add    %al,0xb7600
 295:	00 05 00 28 09 00    	add    %al,0x92800
 29b:	00 05 00 9e 27 00    	add    %al,0x279e00
 2a1:	00 05 00 de 0e 00    	add    %al,0xede00
 2a7:	00 05 00 00 28 00    	add    %al,0x280000
 2ad:	00 05 00 8a 0d 00    	add    %al,0xd8a00
 2b3:	00 05 00 b9 05 00    	add    %al,0x5b900
 2b9:	00 05 00 cc 19 00    	add    %al,0x19cc00
 2bf:	00 05 00 61 12 00    	add    %al,0x126100
 2c5:	00 05 00 73 08 00    	add    %al,0x87300
 2cb:	00 05 00 e2 17 00    	add    %al,0x17e200
 2d1:	00 05 00 19 1a 00    	add    %al,0x1a1900
 2d7:	00 05 00 91 03 00    	add    %al,0x39100
 2dd:	00 05 00 68 07 00    	add    %al,0x76800
 2e3:	00 05 00 f7 00 00    	add    %al,0xf700
 2e9:	00 05 00 5b 27 00    	add    %al,0x275b00
 2ef:	00 05 00 00 00 00    	add    %al,0x0
 2f5:	00 05 00 17 27 00    	add    %al,0x271700
 2fb:	00 05 00 37 0a 00    	add    %al,0xa3700
 301:	00 05 00 9e 1b 00    	add    %al,0x1b9e00
 307:	00 05 00 9c 00 00    	add    %al,0x9c00
 30d:	00 05 00 49 22 00    	add    %al,0x224900
 313:	00 05 00 18 28 00    	add    %al,0x281800
 319:	00 05 00 3b 1f 00    	add    %al,0x1f3b00
 31f:	00 05 00 39 07 00    	add    %al,0x73900
 325:	00 05 00 3a 26 00    	add    %al,0x263a00
 32b:	00 05 00 1c 23 00    	add    %al,0x231c00
 331:	00 05 00 c8 0f 00    	add    %al,0xfc800
 337:	00 05 00 4e 21 00    	add    %al,0x214e00
 33d:	00 05 00 32 00 00    	add    %al,0x3200
 343:	00 05 00 de 15 00    	add    %al,0x15de00
 349:	00 05 00 7e 23 00    	add    %al,0x237e00
 34f:	00 05 00 cc 24 00    	add    %al,0x24cc00
 355:	00 05 00 ee 08 00    	add    %al,0x8ee00
 35b:	00 05 00 3a 20 00    	add    %al,0x203a00
 361:	00 05 00 60 0d 00    	add    %al,0xd6000
 367:	00 05 00 0e 09 00    	add    %al,0x90e00
 36d:	00 05 00 a2 0c 00    	add    %al,0xca200
 373:	00 05 00 b1 01 00    	add    %al,0x1b100
 379:	00 05 00 aa 1d 00    	add    %al,0x1daa00
 37f:	00 05 00 f6 0f 00    	add    %al,0xff600
 385:	00 05 00 c2 1b 00    	add    %al,0x1bc200
 38b:	00 05 00 53 05 00    	add    %al,0x55300
 391:	00 05 00 2b 0f 00    	add    %al,0xf2b00
 397:	00 05 00 a1 01 00    	add    %al,0x1a100
 39d:	00 05 00 a6 28 00    	add    %al,0x28a600
 3a3:	00 05 00 af 0d 00    	add    %al,0xdaf00
 3a9:	00 05 00 4a 10 00    	add    %al,0x104a00
 3af:	00 05 00 25 25 00    	add    %al,0x252500
 3b5:	00 05 00 8a 12 00    	add    %al,0x128a00
 3bb:	00 05 00 2b 0e 00    	add    %al,0xe2b00
 3c1:	00 05 00 b6 13 00    	add    %al,0x13b600
 3c7:	00 05 00 51 18 00    	add    %al,0x185100
 3cd:	00 05 00 ed 05 00    	add    %al,0x5ed00
 3d3:	00 05 00 f4 11 00    	add    %al,0x11f400
 3d9:	00 05 00 bd 00 00    	add    %al,0xbd00
 3df:	00 05 00 0b 0b 00    	add    %al,0xb0b00
 3e5:	00 05 00 bd 08 00    	add    %al,0x8bd00
 3eb:	00 05 00 68 1f 00    	add    %al,0x1f6800
 3f1:	00 05 00 0e 10 00    	add    %al,0x100e00
 3f7:	00 05 00 85 00 00    	add    %al,0x8500
 3fd:	00 05 00 f8 06 00    	add    %al,0x6f800
 403:	00 05 00 a7 13 00    	add    %al,0x13a700
 409:	00 05 00 ac 1e 00    	add    %al,0x1eac00
 40f:	00 05 00 43 28 00    	add    %al,0x284300
 415:	00 05 00 a6 16 00    	add    %al,0x16a600
 41b:	00 05 00 2c 1c 00    	add    %al,0x1c2c00
 421:	00 05 00 90 13 00    	add    %al,0x139000
 427:	00 05 00 78 24 00    	add    %al,0x247800
 42d:	00 05 00 c3 09 00    	add    %al,0x9c300
 433:	00 05 00 cd 01 00    	add    %al,0x1cd00
 439:	00 05 00 74 05 00    	add    %al,0x57400
 43f:	00 05 00 cf 0d 00    	add    %al,0xdcf00
 445:	00 05 00 9e 12 00    	add    %al,0x129e00
 44b:	00 05 00 1a 04 00    	add    %al,0x41a00
 451:	00 05 00 50 07 00    	add    %al,0x75000
 457:	00 05 00 03 0f 00    	add    %al,0xf0300
 45d:	00 05 00 45 24 00    	add    %al,0x244500
 463:	00 05 00 3a 19 00    	add    %al,0x193a00
 469:	00 05 00 ae 0f 00    	add    %al,0xfae00
 46f:	00 05 00 1d 11 00    	add    %al,0x111d00
 475:	00 05 00 b5 1a 00    	add    %al,0x1ab500
 47b:	00 05 00 a0 02 00    	add    %al,0x2a000
 481:	00 05 00 a6 0a 00    	add    %al,0xaa600
 487:	00 05 00 4e 14 00    	add    %al,0x144e00
 48d:	00 05 00 a7 11 00    	add    %al,0x11a700
 493:	00 05 00 6d 1e 00    	add    %al,0x1e6d00
 499:	00 05 00 57 03 00    	add    %al,0x35700
 49f:	00 05 00 a1 06 00    	add    %al,0x6a100
 4a5:	00 05 00 eb 1b 00    	add    %al,0x1beb00
 4ab:	00 05 00 e6 20 00    	add    %al,0x20e600
 4b1:	00 05 00 a5 08 00    	add    %al,0x8a500
 4b7:	00 05 00 49 0b 00    	add    %al,0xb4900
 4bd:	00 05 00 38 15 00    	add    %al,0x153800
 4c3:	00 05 00 e0 0f 00    	add    %al,0xfe000
 4c9:	00 05 00 61 00 00    	add    %al,0x6100
 4cf:	00 05 00 af 26 00    	add    %al,0x26af00
 4d5:	00 05 00 d3 1e 00    	add    %al,0x1ed300
 4db:	00 05 00 6b 0c 00    	add    %al,0xc6b00
 4e1:	00 05 00 50 15 00    	add    %al,0x155000
 4e7:	00 05 00 a4 17 00    	add    %al,0x17a400
 4ed:	00 05 00 23 08 00    	add    %al,0x82300
 4f3:	00 05 00 e3 07 00    	add    %al,0x7e300
 4f9:	00 05 00 a3 0e 00    	add    %al,0xea300
 4ff:	00 05 00 fc 16 00    	add    %al,0x16fc00
 505:	00 05 00 d0 23 00    	add    %al,0x23d000
 50b:	00 05 00 24 1f 00    	add    %al,0x1f2400
 511:	00 05 00 8c 08 00    	add    %al,0x88c00
 517:	00 05 00 7a 22 00    	add    %al,0x227a00
 51d:	00 05 00 44 01 00    	add    %al,0x14400
 523:	00 05 00 52 1f 00    	add    %al,0x1f5200
 529:	00 05 00 34 24 00    	add    %al,0x243400
 52f:	00 05 00 fc 20 00    	add    %al,0x20fc00
 535:	00 05 00 1e 19 00    	add    %al,0x191e00
 53b:	00 05 00 8b 0c 00    	add    %al,0xc8b00
 541:	00 05 00 8d 28 00    	add    %al,0x288d00
 547:	00 05 00 7f 1f 00    	add    %al,0x1f7f00
 54d:	00 05 00 cc 02 00    	add    %al,0x2cc00
 553:	00 05 00 ae 1c 00    	add    %al,0x1cae00
 559:	00 05 00 4c 02 00    	add    %al,0x24c00
 55f:	00 05 00 14 05 00    	add    %al,0x51400
 565:	00 05 00 dd 1f 00    	add    %al,0x1fdd00
 56b:	00 05 00 b5 19 00    	add    %al,0x19b500
 571:	00 05 00 48 12 00    	add    %al,0x124800
 577:	00 05 00 44 06 00    	add    %al,0x64400
 57d:	00 05 00 8b 17 00    	add    %al,0x178b00
 583:	00 05 00 ee 1e 00    	add    %al,0x1eee00
 589:	00 05 00 26 27 00    	add    %al,0x272600
 58f:	00 05 00 d2 08 00    	add    %al,0x8d200
 595:	00 05 00 b3 12 00    	add    %al,0x12b300
 59b:	00 05 00 19 00 00    	add    %al,0x1900
 5a1:	00 05 00 62 25 00    	add    %al,0x256200
 5a7:	00 05 00 53 1a 00    	add    %al,0x1a5300
 5ad:	00 05 00 c6 22 00    	add    %al,0x22c600
 5b3:	00 05 00 d1 25 00    	add    %al,0x25d100
 5b9:	00 05 00 1f 13 00    	add    %al,0x131f00
 5bf:	00 05 00 90 25 00    	add    %al,0x259000
 5c5:	00 05 00 43 1c 00    	add    %al,0x1c4300
 5cb:	00 05 00 e8 12 00    	add    %al,0x12e800
 5d1:	00 05 00 c6 14 00    	add    %al,0x14c600
 5d7:	00 05 00 e7 19 00    	add    %al,0x19e700
 5dd:	00 05 00 bb 16 00    	add    %al,0x16bb00
 5e3:	00 05 00 d5 16 00    	add    %al,0x16d500
 5e9:	00 05 00 de 1a 00    	add    %al,0x1ade00
 5ef:	00 05 00 66 14 00    	add    %al,0x146600
 5f5:	00 05 00 8d 04 00    	add    %al,0x48d00
 5fb:	00 05 00 88 02 00    	add    %al,0x28800
 601:	00 05 00 f1 0a 00    	add    %al,0xaf100
 607:	00 05 00 9d 18 00    	add    %al,0x189d00
 60d:	00 05 00 3a 17 00    	add    %al,0x173a00
 613:	00 05 00 4a 04 00    	add    %al,0x44a00
 619:	00 05 00 6d 10 00    	add    %al,0x106d00
 61f:	00 05 00 aa 04 00    	add    %al,0x4aa00
 625:	00 05 00 ca 1d 00    	add    %al,0x1dca00
 62b:	00 05 00 f0 1a 00    	add    %al,0x1af000
 631:	00 05 00 64 19 00    	add    %al,0x196400
 637:	00 05 00 ab 10 00    	add    %al,0x10ab00
 63d:	00 05 00 2a 01 00    	add    %al,0x12a00
 643:	00 05 00 4a 00 00    	add    %al,0x4a00
 649:	00 05 00 cc 1a 00    	add    %al,0x1acc00
 64f:	00 05 00 5e 22 00    	add    %al,0x225e00
 655:	00 05 00 25 1b 00    	add    %al,0x1b2500
 65b:	00 05 00 96 26 00    	add    %al,0x269600
 661:	00 05 00 2e 22 00    	add    %al,0x222e00
 667:	00 05 00 4a 19 00    	add    %al,0x194a00
 66d:	00 05 00 5a 20 00    	add    %al,0x205a00
 673:	00 05 00 a2 0b 00    	add    %al,0xba200
 679:	00 05 00 aa 03 00    	add    %al,0x3aa00
 67f:	00 05 00 e4 24 00    	add    %al,0x24e400
 685:	00 05 00 43 11 00    	add    %al,0x114300
 68b:	00 05 00 eb 04 00    	add    %al,0x4eb00
 691:	00 05 00 70 12 00    	add    %al,0x127000
 697:	00 05 00 29 1e 00    	add    %al,0x1e2900
 69d:	00 05 00 0f 1e 00    	add    %al,0x1e0f00
 6a3:	00 05 00 7b 1d 00    	add    %al,0x1d7b00
 6a9:	00 05 00 61 0e 00    	add    %al,0xe6100
 6af:	00 05 00 a3 07 00    	add    %al,0x7a300
 6b5:	00 05 00 0f 02 00    	add    %al,0x20f00
 6bb:	00 05 00 41 0f 00    	add    %al,0xf4100
 6c1:	00 05 00 96 23 00    	add    %al,0x239600
 6c7:	00 05 00 9f 22 00    	add    %al,0x229f00
 6cd:	00 05 00 8b 01 00    	add    %al,0x18b00
 6d3:	00 05 00 28 1a 00    	add    %al,0x1a2800
 6d9:	00 05 00 e0 14 00    	add    %al,0x14e000
 6df:	00 05 00 05 23 00    	add    %al,0x230500
 6e5:	00 05 00 b8 15 00    	add    %al,0x15b800
 6eb:	00 05 00 90 1d 00    	add    %al,0x1d9000
 6f1:	00 05 00 5e 06 00    	add    %al,0x65e00
 6f7:	00 05 00 02 1a 00    	add    %al,0x1a0200
 6fd:	00 05 00 70 01 00    	add    %al,0x17000
 703:	00 05 00 7e 26 00    	add    %al,0x267e00
 709:	00 05 00 ee 13 00    	add    %al,0x13ee00
 70f:	00 05 00 06 16 00    	add    %al,0x160600
 715:	00 05 00 1f 18 00    	add    %al,0x181f00
 71b:	00 05 00 b4 21 00    	add    %al,0x21b400
 721:	00 05 00 6c 21 00    	add    %al,0x216c00
 727:	00 05 00 79 0e 00    	add    %al,0xe7900
 72d:	00 05 00 76 28 00    	add    %al,0x287600
 733:	00 05 00 41 0e 00    	add    %al,0xe4100
 739:	00 05 00 74 27 00    	add    %al,0x277400
 73f:	00 05 00 90 1a 00    	add    %al,0x1a9000
 745:	00 05 00 96 14 00    	add    %al,0x149600
 74b:	00 05 00 15 26 00    	add    %al,0x261500
 751:	00 05 00 84 0f 00    	add    %al,0xf8400
 757:	00 05 00 01 18 00    	add    %al,0x180100
 75d:	00 05 00 2c 21 00    	add    %al,0x212c00
 763:	00 05 00 e1 0c 00    	add    %al,0xce100
 769:	00 05 00 3e 09 00    	add    %al,0x93e00
 76f:	00 05 00 99 15 00    	add    %al,0x159900
 775:	00 05 00 2b 12 00    	add    %al,0x122b00
 77b:	00 05 00 5a 24 00    	add    %al,0x245a00
 781:	00 05 00 00 13 00    	add    %al,0x130000
 787:	00 05 00 3e 25 00    	add    %al,0x253e00
 78d:	00 05 00 df 27 00    	add    %al,0x27df00
 793:	00 05 00 94 21 00    	add    %al,0x219400
 799:	00 05 00 b9 27 00    	add    %al,0x27b900
 79f:	00 05 00 53 0a 00    	add    %al,0xa5300
 7a5:	00 05 00 88 18 00    	add    %al,0x188800
 7ab:	00 05 00 14 03 00    	add    %al,0x31400
 7b1:	00 05 00 3a 18 00    	add    %al,0x183a00
 7b7:	00 05 00 e8 0a 00    	add    %al,0xae800
 7bd:	00 05 00 bb 14 00    	add    %al,0x14bb00
 7c3:	00 05 00 ea 0a 00    	add    %al,0xaea00
 7c9:	00 05 00 af 23 00    	add    %al,0x23af00
 7cf:	00 05 00 08 03 00    	add    %al,0x30800
 7d5:	00 05 00 16 21 00    	add    %al,0x211600
 7db:	00 05 00 28 03 00    	add    %al,0x32800
 7e1:	00 05 00 7e 19 00    	add    %al,0x197e00
 7e7:	00 05 00 99 19 00    	add    %al,0x199900
 7ed:	00 05 00 dd 06 00    	add    %al,0x6dd00
 7f3:	00 05 00 03 0d 00    	add    %al,0xd0300
 7f9:	00 05 00 b9 0a 00    	add    %al,0xab900
 7ff:	00 05 00 c4 1e 00    	add    %al,0x1ec400
 805:	00 05 00 03 05 00    	add    %al,0x50300
 80b:	00 05 00 40 16 00    	add    %al,0x164000
 811:	00 05 00 ec 16 00    	add    %al,0x16ec00
 817:	00 05 00 94 22 00    	add    %al,0x229400
 81d:	00 05 00 44 1e 00    	add    %al,0x1e4400
 823:	00 05 00 ba 1d 00    	add    %al,0x1dba00
 829:	00 05 00 d5 27 00    	add    %al,0x27d500
 82f:	00 05 00 61 10 00    	add    %al,0x106100
 835:	00 05 00 d7 27 00    	add    %al,0x27d700
 83b:	00 05 00 21 01 00    	add    %al,0x12100
 841:	00 05 00 00 04 00    	add    %al,0x40000
 847:	00 05 00 23 01 00    	add    %al,0x12300
 84d:	00 05 00 14 19 00    	add    %al,0x191400
 853:	00 05 00 c8 0c 00    	add    %al,0xcc800
	...

Disassembly of section .debug_line:

00000000 <.debug_line>:
   0:	34 00                	xor    $0x0,%al
   2:	00 00                	add    %al,(%eax)
   4:	04 00                	add    $0x0,%al
   6:	1c 00                	sbb    $0x0,%al
   8:	00 00                	add    %al,(%eax)
   a:	01 01                	add    %eax,(%ecx)
   c:	01 fb                	add    %edi,%ebx
   e:	0e                   	push   %cs
   f:	0d 00 01 01 01       	or     $0x1010100,%eax
  14:	01 00                	add    %eax,(%eax)
  16:	00 00                	add    %al,(%eax)
  18:	01 00                	add    %eax,(%eax)
  1a:	00 01                	add    %al,(%ecx)
  1c:	00 6f 73             	add    %ch,0x73(%edi)
  1f:	2e 63 00             	arpl   %ax,%cs:(%eax)
  22:	00 00                	add    %al,(%eax)
  24:	00 00                	add    %al,(%eax)
  26:	05 0d 00 05 02       	add    $0x205000d,%eax
  2b:	00 05 00 00 01 05    	add    %al,0x5010000
  31:	0e                   	push   %cs
  32:	c8 02 03 00          	enter  $0x302,$0x0
  36:	01 01                	add    %eax,(%ecx)

Disassembly of section .debug_str:

00000000 <.debug_str>:
       0:	5f                   	pop    %edi
       1:	5f                   	pop    %edi
       2:	55                   	push   %ebp
       3:	49                   	dec    %ecx
       4:	4e                   	dec    %esi
       5:	54                   	push   %esp
       6:	5f                   	pop    %edi
       7:	4c                   	dec    %esp
       8:	45                   	inc    %ebp
       9:	41                   	inc    %ecx
       a:	53                   	push   %ebx
       b:	54                   	push   %esp
       c:	38 5f 4d             	cmp    %bl,0x4d(%edi)
       f:	41                   	inc    %ecx
      10:	58                   	pop    %eax
      11:	5f                   	pop    %edi
      12:	5f                   	pop    %edi
      13:	20 30                	and    %dh,(%eax)
      15:	78 66                	js     7d <main-0x483>
      17:	66 00 5f 5f          	data16 add %bl,0x5f(%edi)
      1b:	46                   	inc    %esi
      1c:	4c                   	dec    %esp
      1d:	54                   	push   %esp
      1e:	31 32                	xor    %esi,(%edx)
      20:	38 5f 4d             	cmp    %bl,0x4d(%edi)
      23:	41                   	inc    %ecx
      24:	58                   	pop    %eax
      25:	5f                   	pop    %edi
      26:	45                   	inc    %ebp
      27:	58                   	pop    %eax
      28:	50                   	push   %eax
      29:	5f                   	pop    %edi
      2a:	5f                   	pop    %edi
      2b:	20 31                	and    %dh,(%ecx)
      2d:	36 33 38             	xor    %ss:(%eax),%edi
      30:	34 00                	xor    $0x0,%al
      32:	5f                   	pop    %edi
      33:	5f                   	pop    %edi
      34:	49                   	dec    %ecx
      35:	4e                   	dec    %esi
      36:	54                   	push   %esp
      37:	5f                   	pop    %edi
      38:	46                   	inc    %esi
      39:	41                   	inc    %ecx
      3a:	53                   	push   %ebx
      3b:	54                   	push   %esp
      3c:	33 32                	xor    (%edx),%esi
      3e:	5f                   	pop    %edi
      3f:	57                   	push   %edi
      40:	49                   	dec    %ecx
      41:	44                   	inc    %esp
      42:	54                   	push   %esp
      43:	48                   	dec    %eax
      44:	5f                   	pop    %edi
      45:	5f                   	pop    %edi
      46:	20 33                	and    %dh,(%ebx)
      48:	32 00                	xor    (%eax),%al
      4a:	5f                   	pop    %edi
      4b:	5f                   	pop    %edi
      4c:	46                   	inc    %esi
      4d:	4c                   	dec    %esp
      4e:	54                   	push   %esp
      4f:	36 34 58             	ss xor $0x58,%al
      52:	5f                   	pop    %edi
      53:	4d                   	dec    %ebp
      54:	41                   	inc    %ecx
      55:	4e                   	dec    %esi
      56:	54                   	push   %esp
      57:	5f                   	pop    %edi
      58:	44                   	inc    %esp
      59:	49                   	dec    %ecx
      5a:	47                   	inc    %edi
      5b:	5f                   	pop    %edi
      5c:	5f                   	pop    %edi
      5d:	20 36                	and    %dh,(%esi)
      5f:	34 00                	xor    $0x0,%al
      61:	5f                   	pop    %edi
      62:	5f                   	pop    %edi
      63:	46                   	inc    %esi
      64:	4c                   	dec    %esp
      65:	54                   	push   %esp
      66:	33 32                	xor    (%edx),%esi
      68:	5f                   	pop    %edi
      69:	44                   	inc    %esp
      6a:	49                   	dec    %ecx
      6b:	47                   	inc    %edi
      6c:	5f                   	pop    %edi
      6d:	5f                   	pop    %edi
      6e:	20 36                	and    %dh,(%esi)
      70:	00 5f 5f             	add    %bl,0x5f(%edi)
      73:	53                   	push   %ebx
      74:	49                   	dec    %ecx
      75:	5a                   	pop    %edx
      76:	45                   	inc    %ebp
      77:	4f                   	dec    %edi
      78:	46                   	inc    %esi
      79:	5f                   	pop    %edi
      7a:	53                   	push   %ebx
      7b:	49                   	dec    %ecx
      7c:	5a                   	pop    %edx
      7d:	45                   	inc    %ebp
      7e:	5f                   	pop    %edi
      7f:	54                   	push   %esp
      80:	5f                   	pop    %edi
      81:	5f                   	pop    %edi
      82:	20 34 00             	and    %dh,(%eax,%eax,1)
      85:	5f                   	pop    %edi
      86:	5f                   	pop    %edi
      87:	46                   	inc    %esi
      88:	4c                   	dec    %esp
      89:	54                   	push   %esp
      8a:	5f                   	pop    %edi
      8b:	49                   	dec    %ecx
      8c:	53                   	push   %ebx
      8d:	5f                   	pop    %edi
      8e:	49                   	dec    %ecx
      8f:	45                   	inc    %ebp
      90:	43                   	inc    %ebx
      91:	5f                   	pop    %edi
      92:	36 30 35 35 39 5f 5f 	xor    %dh,%ss:0x5f5f3935
      99:	20 32                	and    %dh,(%edx)
      9b:	00 5f 5f             	add    %bl,0x5f(%edi)
      9e:	55                   	push   %ebp
      9f:	49                   	dec    %ecx
      a0:	4e                   	dec    %esi
      a1:	54                   	push   %esp
      a2:	5f                   	pop    %edi
      a3:	4c                   	dec    %esp
      a4:	45                   	inc    %ebp
      a5:	41                   	inc    %ecx
      a6:	53                   	push   %ebx
      a7:	54                   	push   %esp
      a8:	33 32                	xor    (%edx),%esi
      aa:	5f                   	pop    %edi
      ab:	4d                   	dec    %ebp
      ac:	41                   	inc    %ecx
      ad:	58                   	pop    %eax
      ae:	5f                   	pop    %edi
      af:	5f                   	pop    %edi
      b0:	20 30                	and    %dh,(%eax)
      b2:	78 66                	js     11a <main-0x3e6>
      b4:	66 66 66 66 66 66 66 	data16 data16 data16 data16 data16 data16 push %bp
      bb:	55 
      bc:	00 5f 5f             	add    %bl,0x5f(%edi)
      bf:	46                   	inc    %esi
      c0:	4c                   	dec    %esp
      c1:	54                   	push   %esp
      c2:	5f                   	pop    %edi
      c3:	45                   	inc    %ebp
      c4:	50                   	push   %eax
      c5:	53                   	push   %ebx
      c6:	49                   	dec    %ecx
      c7:	4c                   	dec    %esp
      c8:	4f                   	dec    %edi
      c9:	4e                   	dec    %esi
      ca:	5f                   	pop    %edi
      cb:	5f                   	pop    %edi
      cc:	20 31                	and    %dh,(%ecx)
      ce:	2e 31 39             	xor    %edi,%cs:(%ecx)
      d1:	32 30                	xor    (%eax),%dh
      d3:	39 32                	cmp    %esi,(%edx)
      d5:	38 39                	cmp    %bh,(%ecx)
      d7:	35 35 30 37 38       	xor    $0x38373035,%eax
      dc:	31 32                	xor    %esi,(%edx)
      de:	35 30 30 30 30       	xor    $0x30303030,%eax
      e3:	30 30                	xor    %dh,(%eax)
      e5:	30 30                	xor    %dh,(%eax)
      e7:	30 30                	xor    %dh,(%eax)
      e9:	30 30                	xor    %dh,(%eax)
      eb:	30 30                	xor    %dh,(%eax)
      ed:	30 30                	xor    %dh,(%eax)
      ef:	30 30                	xor    %dh,(%eax)
      f1:	30 65 2d             	xor    %ah,0x2d(%ebp)
      f4:	37                   	aaa    
      f5:	46                   	inc    %esi
      f6:	00 5f 5f             	add    %bl,0x5f(%edi)
      f9:	49                   	dec    %ecx
      fa:	4e                   	dec    %esi
      fb:	54                   	push   %esp
      fc:	36 34 5f             	ss xor $0x5f,%al
      ff:	43                   	inc    %ebx
     100:	28 63 29             	sub    %ah,0x29(%ebx)
     103:	20 63 20             	and    %ah,0x20(%ebx)
     106:	23 23                	and    (%ebx),%esp
     108:	20 4c 4c 00          	and    %cl,0x0(%esp,%ecx,2)
     10c:	5f                   	pop    %edi
     10d:	5f                   	pop    %edi
     10e:	53                   	push   %ebx
     10f:	49                   	dec    %ecx
     110:	5a                   	pop    %edx
     111:	45                   	inc    %ebp
     112:	4f                   	dec    %edi
     113:	46                   	inc    %esi
     114:	5f                   	pop    %edi
     115:	50                   	push   %eax
     116:	4f                   	dec    %edi
     117:	49                   	dec    %ecx
     118:	4e                   	dec    %esi
     119:	54                   	push   %esp
     11a:	45                   	inc    %ebp
     11b:	52                   	push   %edx
     11c:	5f                   	pop    %edi
     11d:	5f                   	pop    %edi
     11e:	20 34 00             	and    %dh,(%eax,%eax,1)
     121:	5f                   	pop    %edi
     122:	5f                   	pop    %edi
     123:	75 6e                	jne    193 <main-0x36d>
     125:	69 78 20 31 00 5f 5f 	imul   $0x5f5f0031,0x20(%eax),%edi
     12c:	46                   	inc    %esi
     12d:	4c                   	dec    %esp
     12e:	54                   	push   %esp
     12f:	33 32                	xor    (%edx),%esi
     131:	58                   	pop    %eax
     132:	5f                   	pop    %edi
     133:	49                   	dec    %ecx
     134:	53                   	push   %ebx
     135:	5f                   	pop    %edi
     136:	49                   	dec    %ecx
     137:	45                   	inc    %ebp
     138:	43                   	inc    %ebx
     139:	5f                   	pop    %edi
     13a:	36 30 35 35 39 5f 5f 	xor    %dh,%ss:0x5f5f3935
     141:	20 32                	and    %dh,(%edx)
     143:	00 5f 5f             	add    %bl,0x5f(%edi)
     146:	46                   	inc    %esi
     147:	4c                   	dec    %esp
     148:	54                   	push   %esp
     149:	33 32                	xor    (%edx),%esi
     14b:	5f                   	pop    %edi
     14c:	49                   	dec    %ecx
     14d:	53                   	push   %ebx
     14e:	5f                   	pop    %edi
     14f:	49                   	dec    %ecx
     150:	45                   	inc    %ebp
     151:	43                   	inc    %ebx
     152:	5f                   	pop    %edi
     153:	36 30 35 35 39 5f 5f 	xor    %dh,%ss:0x5f5f3935
     15a:	20 32                	and    %dh,(%edx)
     15c:	00 5f 5f             	add    %bl,0x5f(%edi)
     15f:	57                   	push   %edi
     160:	43                   	inc    %ebx
     161:	48                   	dec    %eax
     162:	41                   	inc    %ecx
     163:	52                   	push   %edx
     164:	5f                   	pop    %edi
     165:	57                   	push   %edi
     166:	49                   	dec    %ecx
     167:	44                   	inc    %esp
     168:	54                   	push   %esp
     169:	48                   	dec    %eax
     16a:	5f                   	pop    %edi
     16b:	5f                   	pop    %edi
     16c:	20 33                	and    %dh,(%ebx)
     16e:	32 00                	xor    (%eax),%al
     170:	5f                   	pop    %edi
     171:	5f                   	pop    %edi
     172:	44                   	inc    %esp
     173:	45                   	inc    %ebp
     174:	43                   	inc    %ebx
     175:	31 32                	xor    %esi,(%edx)
     177:	38 5f 4d             	cmp    %bl,0x4d(%edi)
     17a:	49                   	dec    %ecx
     17b:	4e                   	dec    %esi
     17c:	5f                   	pop    %edi
     17d:	45                   	inc    %ebp
     17e:	58                   	pop    %eax
     17f:	50                   	push   %eax
     180:	5f                   	pop    %edi
     181:	5f                   	pop    %edi
     182:	20 28                	and    %ch,(%eax)
     184:	2d 36 31 34 32       	sub    $0x32343136,%eax
     189:	29 00                	sub    %eax,(%eax)
     18b:	5f                   	pop    %edi
     18c:	5f                   	pop    %edi
     18d:	44                   	inc    %esp
     18e:	45                   	inc    %ebp
     18f:	43                   	inc    %ebx
     190:	36 34 5f             	ss xor $0x5f,%al
     193:	4d                   	dec    %ebp
     194:	41                   	inc    %ecx
     195:	4e                   	dec    %esi
     196:	54                   	push   %esp
     197:	5f                   	pop    %edi
     198:	44                   	inc    %esp
     199:	49                   	dec    %ecx
     19a:	47                   	inc    %edi
     19b:	5f                   	pop    %edi
     19c:	5f                   	pop    %edi
     19d:	20 31                	and    %dh,(%ecx)
     19f:	36 00 5f 5f          	add    %bl,%ss:0x5f(%edi)
     1a3:	46                   	inc    %esi
     1a4:	4c                   	dec    %esp
     1a5:	54                   	push   %esp
     1a6:	5f                   	pop    %edi
     1a7:	52                   	push   %edx
     1a8:	41                   	inc    %ecx
     1a9:	44                   	inc    %esp
     1aa:	49                   	dec    %ecx
     1ab:	58                   	pop    %eax
     1ac:	5f                   	pop    %edi
     1ad:	5f                   	pop    %edi
     1ae:	20 32                	and    %dh,(%edx)
     1b0:	00 5f 5f             	add    %bl,0x5f(%edi)
     1b3:	55                   	push   %ebp
     1b4:	49                   	dec    %ecx
     1b5:	4e                   	dec    %esi
     1b6:	54                   	push   %esp
     1b7:	50                   	push   %eax
     1b8:	54                   	push   %esp
     1b9:	52                   	push   %edx
     1ba:	5f                   	pop    %edi
     1bb:	4d                   	dec    %ebp
     1bc:	41                   	inc    %ecx
     1bd:	58                   	pop    %eax
     1be:	5f                   	pop    %edi
     1bf:	5f                   	pop    %edi
     1c0:	20 30                	and    %dh,(%eax)
     1c2:	78 66                	js     22a <main-0x2d6>
     1c4:	66 66 66 66 66 66 66 	data16 data16 data16 data16 data16 data16 push %bp
     1cb:	55 
     1cc:	00 5f 5f             	add    %bl,0x5f(%edi)
     1cf:	44                   	inc    %esp
     1d0:	42                   	inc    %edx
     1d1:	4c                   	dec    %esp
     1d2:	5f                   	pop    %edi
     1d3:	4d                   	dec    %ebp
     1d4:	49                   	dec    %ecx
     1d5:	4e                   	dec    %esi
     1d6:	5f                   	pop    %edi
     1d7:	5f                   	pop    %edi
     1d8:	20 28                	and    %ch,(%eax)
     1da:	28 64 6f 75          	sub    %ah,0x75(%edi,%ebp,2)
     1de:	62 6c 65 29          	bound  %ebp,0x29(%ebp,%eiz,2)
     1e2:	32 2e                	xor    (%esi),%ch
     1e4:	32 32                	xor    (%edx),%dh
     1e6:	35 30 37 33 38       	xor    $0x38333730,%eax
     1eb:	35 38 35 30 37       	xor    $0x37303538,%eax
     1f0:	32 30                	xor    (%eax),%dh
     1f2:	31 33                	xor    %esi,(%ebx)
     1f4:	38 33                	cmp    %dh,(%ebx)
     1f6:	30 39                	xor    %bh,(%ecx)
     1f8:	30 32                	xor    %dh,(%edx)
     1fa:	33 32                	xor    (%edx),%esi
     1fc:	37                   	aaa    
     1fd:	31 37                	xor    %esi,(%edi)
     1ff:	33 33                	xor    (%ebx),%esi
     201:	32 34 30             	xor    (%eax,%esi,1),%dh
     204:	34 30                	xor    $0x30,%al
     206:	36 65 2d 33 30 38 4c 	ss gs sub $0x4c383033,%eax
     20d:	29 00                	sub    %eax,(%eax)
     20f:	5f                   	pop    %edi
     210:	5f                   	pop    %edi
     211:	44                   	inc    %esp
     212:	45                   	inc    %ebp
     213:	43                   	inc    %ebx
     214:	33 32                	xor    (%edx),%esi
     216:	5f                   	pop    %edi
     217:	4d                   	dec    %ebp
     218:	49                   	dec    %ecx
     219:	4e                   	dec    %esi
     21a:	5f                   	pop    %edi
     21b:	5f                   	pop    %edi
     21c:	20 31                	and    %dh,(%ecx)
     21e:	45                   	inc    %ebp
     21f:	2d 39 35 44 46       	sub    $0x46443539,%eax
     224:	00 5f 5f             	add    %bl,0x5f(%edi)
     227:	55                   	push   %ebp
     228:	49                   	dec    %ecx
     229:	4e                   	dec    %esi
     22a:	54                   	push   %esp
     22b:	36 34 5f             	ss xor $0x5f,%al
     22e:	54                   	push   %esp
     22f:	59                   	pop    %ecx
     230:	50                   	push   %eax
     231:	45                   	inc    %ebp
     232:	5f                   	pop    %edi
     233:	5f                   	pop    %edi
     234:	20 6c 6f 6e          	and    %ch,0x6e(%edi,%ebp,2)
     238:	67 20 6c 6f          	and    %ch,0x6f(%si)
     23c:	6e                   	outsb  %ds:(%esi),(%dx)
     23d:	67 20 75 6e          	and    %dh,0x6e(%di)
     241:	73 69                	jae    2ac <main-0x254>
     243:	67 6e                	outsb  %ds:(%si),(%dx)
     245:	65 64 20 69 6e       	gs and %ch,%fs:0x6e(%ecx)
     24a:	74 00                	je     24c <main-0x2b4>
     24c:	5f                   	pop    %edi
     24d:	5f                   	pop    %edi
     24e:	46                   	inc    %esi
     24f:	4c                   	dec    %esp
     250:	54                   	push   %esp
     251:	36 34 5f             	ss xor $0x5f,%al
     254:	4d                   	dec    %ebp
     255:	49                   	dec    %ecx
     256:	4e                   	dec    %esi
     257:	5f                   	pop    %edi
     258:	5f                   	pop    %edi
     259:	20 32                	and    %dh,(%edx)
     25b:	2e 32 32             	xor    %cs:(%edx),%dh
     25e:	35 30 37 33 38       	xor    $0x38333730,%eax
     263:	35 38 35 30 37       	xor    $0x37303538,%eax
     268:	32 30                	xor    (%eax),%dh
     26a:	31 33                	xor    %esi,(%ebx)
     26c:	38 33                	cmp    %dh,(%ebx)
     26e:	30 39                	xor    %bh,(%ecx)
     270:	30 32                	xor    %dh,(%edx)
     272:	33 32                	xor    (%edx),%esi
     274:	37                   	aaa    
     275:	31 37                	xor    %esi,(%edi)
     277:	33 33                	xor    (%ebx),%esi
     279:	32 34 30             	xor    (%eax,%esi,1),%dh
     27c:	34 30                	xor    $0x30,%al
     27e:	36 65 2d 33 30 38 46 	ss gs sub $0x46383033,%eax
     285:	36 34 00             	ss xor $0x0,%al
     288:	5f                   	pop    %edi
     289:	5f                   	pop    %edi
     28a:	46                   	inc    %esi
     28b:	4c                   	dec    %esp
     28c:	54                   	push   %esp
     28d:	33 32                	xor    (%edx),%esi
     28f:	58                   	pop    %eax
     290:	5f                   	pop    %edi
     291:	4d                   	dec    %ebp
     292:	41                   	inc    %ecx
     293:	58                   	pop    %eax
     294:	5f                   	pop    %edi
     295:	45                   	inc    %ebp
     296:	58                   	pop    %eax
     297:	50                   	push   %eax
     298:	5f                   	pop    %edi
     299:	5f                   	pop    %edi
     29a:	20 31                	and    %dh,(%ecx)
     29c:	30 32                	xor    %dh,(%edx)
     29e:	34 00                	xor    $0x0,%al
     2a0:	5f                   	pop    %edi
     2a1:	5f                   	pop    %edi
     2a2:	4c                   	dec    %esp
     2a3:	44                   	inc    %esp
     2a4:	42                   	inc    %edx
     2a5:	4c                   	dec    %esp
     2a6:	5f                   	pop    %edi
     2a7:	4d                   	dec    %ebp
     2a8:	41                   	inc    %ecx
     2a9:	58                   	pop    %eax
     2aa:	5f                   	pop    %edi
     2ab:	31 30                	xor    %esi,(%eax)
     2ad:	5f                   	pop    %edi
     2ae:	45                   	inc    %ebp
     2af:	58                   	pop    %eax
     2b0:	50                   	push   %eax
     2b1:	5f                   	pop    %edi
     2b2:	5f                   	pop    %edi
     2b3:	20 34 39             	and    %dh,(%ecx,%edi,1)
     2b6:	33 32                	xor    (%edx),%esi
     2b8:	00 5f 5f             	add    %bl,0x5f(%edi)
     2bb:	41                   	inc    %ecx
     2bc:	54                   	push   %esp
     2bd:	4f                   	dec    %edi
     2be:	4d                   	dec    %ebp
     2bf:	49                   	dec    %ecx
     2c0:	43                   	inc    %ebx
     2c1:	5f                   	pop    %edi
     2c2:	53                   	push   %ebx
     2c3:	45                   	inc    %ebp
     2c4:	51                   	push   %ecx
     2c5:	5f                   	pop    %edi
     2c6:	43                   	inc    %ebx
     2c7:	53                   	push   %ebx
     2c8:	54                   	push   %esp
     2c9:	20 35 00 5f 5f 46    	and    %dh,0x465f5f00
     2cf:	4c                   	dec    %esp
     2d0:	54                   	push   %esp
     2d1:	36 34 5f             	ss xor $0x5f,%al
     2d4:	4d                   	dec    %ebp
     2d5:	41                   	inc    %ecx
     2d6:	58                   	pop    %eax
     2d7:	5f                   	pop    %edi
     2d8:	5f                   	pop    %edi
     2d9:	20 31                	and    %dh,(%ecx)
     2db:	2e 37                	cs aaa 
     2dd:	39 37                	cmp    %esi,(%edi)
     2df:	36 39 33             	cmp    %esi,%ss:(%ebx)
     2e2:	31 33                	xor    %esi,(%ebx)
     2e4:	34 38                	xor    $0x38,%al
     2e6:	36 32 33             	xor    %ss:(%ebx),%dh
     2e9:	31 35 37 30 38 31    	xor    %esi,0x31383037
     2ef:	34 35                	xor    $0x35,%al
     2f1:	32 37                	xor    (%edi),%dh
     2f3:	34 32                	xor    $0x32,%al
     2f5:	33 37                	xor    (%edi),%esi
     2f7:	33 31                	xor    (%ecx),%esi
     2f9:	37                   	aaa    
     2fa:	30 34 33             	xor    %dh,(%ebx,%esi,1)
     2fd:	35 37 65 2b 33       	xor    $0x332b6537,%eax
     302:	30 38                	xor    %bh,(%eax)
     304:	46                   	inc    %esi
     305:	36 34 00             	ss xor $0x0,%al
     308:	5f                   	pop    %edi
     309:	5f                   	pop    %edi
     30a:	49                   	dec    %ecx
     30b:	4c                   	dec    %esp
     30c:	50                   	push   %eax
     30d:	33 32                	xor    (%edx),%esi
     30f:	5f                   	pop    %edi
     310:	5f                   	pop    %edi
     311:	20 31                	and    %dh,(%ecx)
     313:	00 5f 5f             	add    %bl,0x5f(%edi)
     316:	53                   	push   %ebx
     317:	49                   	dec    %ecx
     318:	5a                   	pop    %edx
     319:	45                   	inc    %ebp
     31a:	4f                   	dec    %edi
     31b:	46                   	inc    %esi
     31c:	5f                   	pop    %edi
     31d:	57                   	push   %edi
     31e:	49                   	dec    %ecx
     31f:	4e                   	dec    %esi
     320:	54                   	push   %esp
     321:	5f                   	pop    %edi
     322:	54                   	push   %esp
     323:	5f                   	pop    %edi
     324:	5f                   	pop    %edi
     325:	20 34 00             	and    %dh,(%eax,%eax,1)
     328:	5f                   	pop    %edi
     329:	5f                   	pop    %edi
     32a:	53                   	push   %ebx
     32b:	49                   	dec    %ecx
     32c:	5a                   	pop    %edx
     32d:	45                   	inc    %ebp
     32e:	4f                   	dec    %edi
     32f:	46                   	inc    %esi
     330:	5f                   	pop    %edi
     331:	46                   	inc    %esi
     332:	4c                   	dec    %esp
     333:	4f                   	dec    %edi
     334:	41                   	inc    %ecx
     335:	54                   	push   %esp
     336:	31 32                	xor    %esi,(%edx)
     338:	38 5f 5f             	cmp    %bl,0x5f(%edi)
     33b:	20 31                	and    %dh,(%ecx)
     33d:	36 00 5f 5f          	add    %bl,%ss:0x5f(%edi)
     341:	55                   	push   %ebp
     342:	49                   	dec    %ecx
     343:	4e                   	dec    %esi
     344:	54                   	push   %esp
     345:	4d                   	dec    %ebp
     346:	41                   	inc    %ecx
     347:	58                   	pop    %eax
     348:	5f                   	pop    %edi
     349:	43                   	inc    %ebx
     34a:	28 63 29             	sub    %ah,0x29(%ebx)
     34d:	20 63 20             	and    %ah,0x20(%ebx)
     350:	23 23                	and    (%ebx),%esp
     352:	20 55 4c             	and    %dl,0x4c(%ebp)
     355:	4c                   	dec    %esp
     356:	00 5f 5f             	add    %bl,0x5f(%edi)
     359:	4c                   	dec    %esp
     35a:	44                   	inc    %esp
     35b:	42                   	inc    %edx
     35c:	4c                   	dec    %esp
     35d:	5f                   	pop    %edi
     35e:	4d                   	dec    %ebp
     35f:	49                   	dec    %ecx
     360:	4e                   	dec    %esi
     361:	5f                   	pop    %edi
     362:	5f                   	pop    %edi
     363:	20 33                	and    %dh,(%ebx)
     365:	2e 33 36             	xor    %cs:(%esi),%esi
     368:	32 31                	xor    (%ecx),%dh
     36a:	30 33                	xor    %dh,(%ebx)
     36c:	31 34 33             	xor    %esi,(%ebx,%esi,1)
     36f:	31 31                	xor    %esi,(%ecx)
     371:	32 30                	xor    (%eax),%dh
     373:	39 33                	cmp    %esi,(%ebx)
     375:	35 30 36 32 36       	xor    $0x36323630,%eax
     37a:	32 36                	xor    (%esi),%dh
     37c:	37                   	aaa    
     37d:	37                   	aaa    
     37e:	38 31                	cmp    %dh,(%ecx)
     380:	37                   	aaa    
     381:	33 32                	xor    (%edx),%esi
     383:	31 37                	xor    %esi,(%edi)
     385:	35 32 36 30 65       	xor    $0x65303632,%eax
     38a:	2d 34 39 33 32       	sub    $0x32333934,%eax
     38f:	4c                   	dec    %esp
     390:	00 5f 5f             	add    %bl,0x5f(%edi)
     393:	49                   	dec    %ecx
     394:	4e                   	dec    %esi
     395:	54                   	push   %esp
     396:	5f                   	pop    %edi
     397:	4c                   	dec    %esp
     398:	45                   	inc    %ebp
     399:	41                   	inc    %ecx
     39a:	53                   	push   %ebx
     39b:	54                   	push   %esp
     39c:	33 32                	xor    (%edx),%esi
     39e:	5f                   	pop    %edi
     39f:	57                   	push   %edi
     3a0:	49                   	dec    %ecx
     3a1:	44                   	inc    %esp
     3a2:	54                   	push   %esp
     3a3:	48                   	dec    %eax
     3a4:	5f                   	pop    %edi
     3a5:	5f                   	pop    %edi
     3a6:	20 33                	and    %dh,(%ebx)
     3a8:	32 00                	xor    (%eax),%al
     3aa:	5f                   	pop    %edi
     3ab:	5f                   	pop    %edi
     3ac:	46                   	inc    %esi
     3ad:	4c                   	dec    %esp
     3ae:	54                   	push   %esp
     3af:	36 34 58             	ss xor $0x58,%al
     3b2:	5f                   	pop    %edi
     3b3:	4d                   	dec    %ebp
     3b4:	49                   	dec    %ecx
     3b5:	4e                   	dec    %esi
     3b6:	5f                   	pop    %edi
     3b7:	5f                   	pop    %edi
     3b8:	20 33                	and    %dh,(%ebx)
     3ba:	2e 33 36             	xor    %cs:(%esi),%esi
     3bd:	32 31                	xor    (%ecx),%dh
     3bf:	30 33                	xor    %dh,(%ebx)
     3c1:	31 34 33             	xor    %esi,(%ebx,%esi,1)
     3c4:	31 31                	xor    %esi,(%ecx)
     3c6:	32 30                	xor    (%eax),%dh
     3c8:	39 33                	cmp    %esi,(%ebx)
     3ca:	35 30 36 32 36       	xor    $0x36323630,%eax
     3cf:	32 36                	xor    (%esi),%dh
     3d1:	37                   	aaa    
     3d2:	37                   	aaa    
     3d3:	38 31                	cmp    %dh,(%ecx)
     3d5:	37                   	aaa    
     3d6:	33 32                	xor    (%edx),%esi
     3d8:	31 37                	xor    %esi,(%edi)
     3da:	35 32 36 30 65       	xor    $0x65303632,%eax
     3df:	2d 34 39 33 32       	sub    $0x32333934,%eax
     3e4:	46                   	inc    %esi
     3e5:	36 34 78             	ss xor $0x78,%al
     3e8:	00 5f 5f             	add    %bl,0x5f(%edi)
     3eb:	46                   	inc    %esi
     3ec:	49                   	dec    %ecx
     3ed:	4e                   	dec    %esi
     3ee:	49                   	dec    %ecx
     3ef:	54                   	push   %esp
     3f0:	45                   	inc    %ebp
     3f1:	5f                   	pop    %edi
     3f2:	4d                   	dec    %ebp
     3f3:	41                   	inc    %ecx
     3f4:	54                   	push   %esp
     3f5:	48                   	dec    %eax
     3f6:	5f                   	pop    %edi
     3f7:	4f                   	dec    %edi
     3f8:	4e                   	dec    %esi
     3f9:	4c                   	dec    %esp
     3fa:	59                   	pop    %ecx
     3fb:	5f                   	pop    %edi
     3fc:	5f                   	pop    %edi
     3fd:	20 30                	and    %dh,(%eax)
     3ff:	00 5f 5f             	add    %bl,0x5f(%edi)
     402:	75 6e                	jne    472 <main-0x8e>
     404:	69 78 5f 5f 20 31 00 	imul   $0x31205f,0x5f(%eax),%edi
     40b:	5f                   	pop    %edi
     40c:	5f                   	pop    %edi
     40d:	43                   	inc    %ebx
     40e:	48                   	dec    %eax
     40f:	41                   	inc    %ecx
     410:	52                   	push   %edx
     411:	5f                   	pop    %edi
     412:	42                   	inc    %edx
     413:	49                   	dec    %ecx
     414:	54                   	push   %esp
     415:	5f                   	pop    %edi
     416:	5f                   	pop    %edi
     417:	20 38                	and    %bh,(%eax)
     419:	00 5f 5f             	add    %bl,0x5f(%edi)
     41c:	44                   	inc    %esp
     41d:	42                   	inc    %edx
     41e:	4c                   	dec    %esp
     41f:	5f                   	pop    %edi
     420:	48                   	dec    %eax
     421:	41                   	inc    %ecx
     422:	53                   	push   %ebx
     423:	5f                   	pop    %edi
     424:	49                   	dec    %ecx
     425:	4e                   	dec    %esi
     426:	46                   	inc    %esi
     427:	49                   	dec    %ecx
     428:	4e                   	dec    %esi
     429:	49                   	dec    %ecx
     42a:	54                   	push   %esp
     42b:	59                   	pop    %ecx
     42c:	5f                   	pop    %edi
     42d:	5f                   	pop    %edi
     42e:	20 31                	and    %dh,(%ecx)
     430:	00 5f 5f             	add    %bl,0x5f(%edi)
     433:	53                   	push   %ebx
     434:	54                   	push   %esp
     435:	44                   	inc    %esp
     436:	43                   	inc    %ebx
     437:	5f                   	pop    %edi
     438:	56                   	push   %esi
     439:	45                   	inc    %ebp
     43a:	52                   	push   %edx
     43b:	53                   	push   %ebx
     43c:	49                   	dec    %ecx
     43d:	4f                   	dec    %edi
     43e:	4e                   	dec    %esi
     43f:	5f                   	pop    %edi
     440:	5f                   	pop    %edi
     441:	20 32                	and    %dh,(%edx)
     443:	30 31                	xor    %dh,(%ecx)
     445:	37                   	aaa    
     446:	31 30                	xor    %esi,(%eax)
     448:	4c                   	dec    %esp
     449:	00 5f 5f             	add    %bl,0x5f(%edi)
     44c:	46                   	inc    %esi
     44d:	4c                   	dec    %esp
     44e:	54                   	push   %esp
     44f:	33 32                	xor    (%edx),%esi
     451:	58                   	pop    %eax
     452:	5f                   	pop    %edi
     453:	4e                   	dec    %esi
     454:	4f                   	dec    %edi
     455:	52                   	push   %edx
     456:	4d                   	dec    %ebp
     457:	5f                   	pop    %edi
     458:	4d                   	dec    %ebp
     459:	41                   	inc    %ecx
     45a:	58                   	pop    %eax
     45b:	5f                   	pop    %edi
     45c:	5f                   	pop    %edi
     45d:	20 31                	and    %dh,(%ecx)
     45f:	2e 37                	cs aaa 
     461:	39 37                	cmp    %esi,(%edi)
     463:	36 39 33             	cmp    %esi,%ss:(%ebx)
     466:	31 33                	xor    %esi,(%ebx)
     468:	34 38                	xor    $0x38,%al
     46a:	36 32 33             	xor    %ss:(%ebx),%dh
     46d:	31 35 37 30 38 31    	xor    %esi,0x31383037
     473:	34 35                	xor    $0x35,%al
     475:	32 37                	xor    (%edi),%dh
     477:	34 32                	xor    $0x32,%al
     479:	33 37                	xor    (%edi),%esi
     47b:	33 31                	xor    (%ecx),%esi
     47d:	37                   	aaa    
     47e:	30 34 33             	xor    %dh,(%ebx,%esi,1)
     481:	35 37 65 2b 33       	xor    $0x332b6537,%eax
     486:	30 38                	xor    %bh,(%eax)
     488:	46                   	inc    %esi
     489:	33 32                	xor    (%edx),%esi
     48b:	78 00                	js     48d <main-0x73>
     48d:	5f                   	pop    %edi
     48e:	5f                   	pop    %edi
     48f:	46                   	inc    %esi
     490:	4c                   	dec    %esp
     491:	54                   	push   %esp
     492:	33 32                	xor    (%edx),%esi
     494:	58                   	pop    %eax
     495:	5f                   	pop    %edi
     496:	4d                   	dec    %ebp
     497:	49                   	dec    %ecx
     498:	4e                   	dec    %esi
     499:	5f                   	pop    %edi
     49a:	31 30                	xor    %esi,(%eax)
     49c:	5f                   	pop    %edi
     49d:	45                   	inc    %ebp
     49e:	58                   	pop    %eax
     49f:	50                   	push   %eax
     4a0:	5f                   	pop    %edi
     4a1:	5f                   	pop    %edi
     4a2:	20 28                	and    %ch,(%eax)
     4a4:	2d 33 30 37 29       	sub    $0x29373033,%eax
     4a9:	00 5f 5f             	add    %bl,0x5f(%edi)
     4ac:	46                   	inc    %esi
     4ad:	4c                   	dec    %esp
     4ae:	54                   	push   %esp
     4af:	33 32                	xor    (%edx),%esi
     4b1:	58                   	pop    %eax
     4b2:	5f                   	pop    %edi
     4b3:	45                   	inc    %ebp
     4b4:	50                   	push   %eax
     4b5:	53                   	push   %ebx
     4b6:	49                   	dec    %ecx
     4b7:	4c                   	dec    %esp
     4b8:	4f                   	dec    %edi
     4b9:	4e                   	dec    %esi
     4ba:	5f                   	pop    %edi
     4bb:	5f                   	pop    %edi
     4bc:	20 32                	and    %dh,(%edx)
     4be:	2e 32 32             	xor    %cs:(%edx),%dh
     4c1:	30 34 34             	xor    %dh,(%esp,%esi,1)
     4c4:	36 30 34 39          	xor    %dh,%ss:(%ecx,%edi,1)
     4c8:	32 35 30 33 31 33    	xor    0x33313330,%dh
     4ce:	30 38                	xor    %bh,(%eax)
     4d0:	30 38                	xor    %bh,(%eax)
     4d2:	34 37                	xor    $0x37,%al
     4d4:	32 36                	xor    (%esi),%dh
     4d6:	33 33                	xor    (%ebx),%esi
     4d8:	33 36                	xor    (%esi),%esi
     4da:	31 38                	xor    %edi,(%eax)
     4dc:	31 36                	xor    %esi,(%esi)
     4de:	34 30                	xor    $0x30,%al
     4e0:	36 32 65 2d          	xor    %ss:0x2d(%ebp),%ah
     4e4:	31 36                	xor    %esi,(%esi)
     4e6:	46                   	inc    %esi
     4e7:	33 32                	xor    (%edx),%esi
     4e9:	78 00                	js     4eb <main-0x15>
     4eb:	5f                   	pop    %edi
     4ec:	5f                   	pop    %edi
     4ed:	46                   	inc    %esi
     4ee:	4c                   	dec    %esp
     4ef:	54                   	push   %esp
     4f0:	36 34 58             	ss xor $0x58,%al
     4f3:	5f                   	pop    %edi
     4f4:	48                   	dec    %eax
     4f5:	41                   	inc    %ecx
     4f6:	53                   	push   %ebx
     4f7:	5f                   	pop    %edi
     4f8:	44                   	inc    %esp
     4f9:	45                   	inc    %ebp
     4fa:	4e                   	dec    %esi
     4fb:	4f                   	dec    %edi
     4fc:	52                   	push   %edx
     4fd:	4d                   	dec    %ebp
     4fe:	5f                   	pop    %edi
     4ff:	5f                   	pop    %edi
     500:	20 31                	and    %dh,(%ecx)
     502:	00 5f 5f             	add    %bl,0x5f(%edi)
     505:	70 65                	jo     56c <_GLOBAL_OFFSET_TABLE_+0x58>
     507:	6e                   	outsb  %ds:(%esi),(%dx)
     508:	74 69                	je     573 <_GLOBAL_OFFSET_TABLE_+0x5f>
     50a:	75 6d                	jne    579 <_GLOBAL_OFFSET_TABLE_+0x65>
     50c:	70 72                	jo     580 <_GLOBAL_OFFSET_TABLE_+0x6c>
     50e:	6f                   	outsl  %ds:(%esi),(%dx)
     50f:	5f                   	pop    %edi
     510:	5f                   	pop    %edi
     511:	20 31                	and    %dh,(%ecx)
     513:	00 5f 5f             	add    %bl,0x5f(%edi)
     516:	46                   	inc    %esi
     517:	4c                   	dec    %esp
     518:	54                   	push   %esp
     519:	36 34 5f             	ss xor $0x5f,%al
     51c:	45                   	inc    %ebp
     51d:	50                   	push   %eax
     51e:	53                   	push   %ebx
     51f:	49                   	dec    %ecx
     520:	4c                   	dec    %esp
     521:	4f                   	dec    %edi
     522:	4e                   	dec    %esi
     523:	5f                   	pop    %edi
     524:	5f                   	pop    %edi
     525:	20 32                	and    %dh,(%edx)
     527:	2e 32 32             	xor    %cs:(%edx),%dh
     52a:	30 34 34             	xor    %dh,(%esp,%esi,1)
     52d:	36 30 34 39          	xor    %dh,%ss:(%ecx,%edi,1)
     531:	32 35 30 33 31 33    	xor    0x33313330,%dh
     537:	30 38                	xor    %bh,(%eax)
     539:	30 38                	xor    %bh,(%eax)
     53b:	34 37                	xor    $0x37,%al
     53d:	32 36                	xor    (%esi),%dh
     53f:	33 33                	xor    (%ebx),%esi
     541:	33 36                	xor    (%esi),%esi
     543:	31 38                	xor    %edi,(%eax)
     545:	31 36                	xor    %esi,(%esi)
     547:	34 30                	xor    $0x30,%al
     549:	36 32 65 2d          	xor    %ss:0x2d(%ebp),%ah
     54d:	31 36                	xor    %esi,(%esi)
     54f:	46                   	inc    %esi
     550:	36 34 00             	ss xor $0x0,%al
     553:	5f                   	pop    %edi
     554:	5f                   	pop    %edi
     555:	46                   	inc    %esi
     556:	4c                   	dec    %esp
     557:	54                   	push   %esp
     558:	5f                   	pop    %edi
     559:	45                   	inc    %ebp
     55a:	56                   	push   %esi
     55b:	41                   	inc    %ecx
     55c:	4c                   	dec    %esp
     55d:	5f                   	pop    %edi
     55e:	4d                   	dec    %ebp
     55f:	45                   	inc    %ebp
     560:	54                   	push   %esp
     561:	48                   	dec    %eax
     562:	4f                   	dec    %edi
     563:	44                   	inc    %esp
     564:	5f                   	pop    %edi
     565:	54                   	push   %esp
     566:	53                   	push   %ebx
     567:	5f                   	pop    %edi
     568:	31 38                	xor    %edi,(%eax)
     56a:	36 36 31 5f 33       	ss xor %ebx,%ss:0x33(%edi)
     56f:	5f                   	pop    %edi
     570:	5f                   	pop    %edi
     571:	20 32                	and    %dh,(%edx)
     573:	00 5f 5f             	add    %bl,0x5f(%edi)
     576:	44                   	inc    %esp
     577:	42                   	inc    %edx
     578:	4c                   	dec    %esp
     579:	5f                   	pop    %edi
     57a:	45                   	inc    %ebp
     57b:	50                   	push   %eax
     57c:	53                   	push   %ebx
     57d:	49                   	dec    %ecx
     57e:	4c                   	dec    %esp
     57f:	4f                   	dec    %edi
     580:	4e                   	dec    %esi
     581:	5f                   	pop    %edi
     582:	5f                   	pop    %edi
     583:	20 28                	and    %ch,(%eax)
     585:	28 64 6f 75          	sub    %ah,0x75(%edi,%ebp,2)
     589:	62 6c 65 29          	bound  %ebp,0x29(%ebp,%eiz,2)
     58d:	32 2e                	xor    (%esi),%ch
     58f:	32 32                	xor    (%edx),%dh
     591:	30 34 34             	xor    %dh,(%esp,%esi,1)
     594:	36 30 34 39          	xor    %dh,%ss:(%ecx,%edi,1)
     598:	32 35 30 33 31 33    	xor    0x33313330,%dh
     59e:	30 38                	xor    %bh,(%eax)
     5a0:	30 38                	xor    %bh,(%eax)
     5a2:	34 37                	xor    $0x37,%al
     5a4:	32 36                	xor    (%esi),%dh
     5a6:	33 33                	xor    (%ebx),%esi
     5a8:	33 36                	xor    (%esi),%esi
     5aa:	31 38                	xor    %edi,(%eax)
     5ac:	31 36                	xor    %esi,(%esi)
     5ae:	34 30                	xor    $0x30,%al
     5b0:	36 32 65 2d          	xor    %ss:0x2d(%ebp),%ah
     5b4:	31 36                	xor    %esi,(%esi)
     5b6:	4c                   	dec    %esp
     5b7:	29 00                	sub    %eax,(%eax)
     5b9:	5f                   	pop    %edi
     5ba:	5f                   	pop    %edi
     5bb:	49                   	dec    %ecx
     5bc:	4e                   	dec    %esi
     5bd:	54                   	push   %esp
     5be:	5f                   	pop    %edi
     5bf:	4c                   	dec    %esp
     5c0:	45                   	inc    %ebp
     5c1:	41                   	inc    %ecx
     5c2:	53                   	push   %ebx
     5c3:	54                   	push   %esp
     5c4:	38 5f 57             	cmp    %bl,0x57(%edi)
     5c7:	49                   	dec    %ecx
     5c8:	44                   	inc    %esp
     5c9:	54                   	push   %esp
     5ca:	48                   	dec    %eax
     5cb:	5f                   	pop    %edi
     5cc:	5f                   	pop    %edi
     5cd:	20 38                	and    %bh,(%eax)
     5cf:	00 5f 5f             	add    %bl,0x5f(%edi)
     5d2:	55                   	push   %ebp
     5d3:	49                   	dec    %ecx
     5d4:	4e                   	dec    %esi
     5d5:	54                   	push   %esp
     5d6:	33 32                	xor    (%edx),%esi
     5d8:	5f                   	pop    %edi
     5d9:	54                   	push   %esp
     5da:	59                   	pop    %ecx
     5db:	50                   	push   %eax
     5dc:	45                   	inc    %ebp
     5dd:	5f                   	pop    %edi
     5de:	5f                   	pop    %edi
     5df:	20 75 6e             	and    %dh,0x6e(%ebp)
     5e2:	73 69                	jae    64d <_GLOBAL_OFFSET_TABLE_+0x139>
     5e4:	67 6e                	outsb  %ds:(%si),(%dx)
     5e6:	65 64 20 69 6e       	gs and %ch,%fs:0x6e(%ecx)
     5eb:	74 00                	je     5ed <_GLOBAL_OFFSET_TABLE_+0xd9>
     5ed:	5f                   	pop    %edi
     5ee:	5f                   	pop    %edi
     5ef:	46                   	inc    %esi
     5f0:	4c                   	dec    %esp
     5f1:	54                   	push   %esp
     5f2:	5f                   	pop    %edi
     5f3:	4e                   	dec    %esi
     5f4:	4f                   	dec    %edi
     5f5:	52                   	push   %edx
     5f6:	4d                   	dec    %ebp
     5f7:	5f                   	pop    %edi
     5f8:	4d                   	dec    %ebp
     5f9:	41                   	inc    %ecx
     5fa:	58                   	pop    %eax
     5fb:	5f                   	pop    %edi
     5fc:	5f                   	pop    %edi
     5fd:	20 33                	and    %dh,(%ebx)
     5ff:	2e 34 30             	cs xor $0x30,%al
     602:	32 38                	xor    (%eax),%bh
     604:	32 33                	xor    (%ebx),%dh
     606:	34 36                	xor    $0x36,%al
     608:	36 33 38             	xor    %ss:(%eax),%edi
     60b:	35 32 38 38 35       	xor    $0x35383832,%eax
     610:	39 38                	cmp    %edi,(%eax)
     612:	31 31                	xor    %esi,(%ecx)
     614:	37                   	aaa    
     615:	30 34 31             	xor    %dh,(%ecx,%esi,1)
     618:	38 33                	cmp    %dh,(%ebx)
     61a:	34 38                	xor    $0x38,%al
     61c:	34 35                	xor    $0x35,%al
     61e:	31 36                	xor    %esi,(%esi)
     620:	39 32                	cmp    %esi,(%edx)
     622:	35 65 2b 33 38       	xor    $0x38332b65,%eax
     627:	46                   	inc    %esi
     628:	00 5f 5f             	add    %bl,0x5f(%edi)
     62b:	53                   	push   %ebx
     62c:	49                   	dec    %ecx
     62d:	5a                   	pop    %edx
     62e:	45                   	inc    %ebp
     62f:	5f                   	pop    %edi
     630:	54                   	push   %esp
     631:	59                   	pop    %ecx
     632:	50                   	push   %eax
     633:	45                   	inc    %ebp
     634:	5f                   	pop    %edi
     635:	5f                   	pop    %edi
     636:	20 75 6e             	and    %dh,0x6e(%ebp)
     639:	73 69                	jae    6a4 <_GLOBAL_OFFSET_TABLE_+0x190>
     63b:	67 6e                	outsb  %ds:(%si),(%dx)
     63d:	65 64 20 69 6e       	gs and %ch,%fs:0x6e(%ecx)
     642:	74 00                	je     644 <_GLOBAL_OFFSET_TABLE_+0x130>
     644:	5f                   	pop    %edi
     645:	5f                   	pop    %edi
     646:	46                   	inc    %esi
     647:	4c                   	dec    %esp
     648:	54                   	push   %esp
     649:	36 34 5f             	ss xor $0x5f,%al
     64c:	48                   	dec    %eax
     64d:	41                   	inc    %ecx
     64e:	53                   	push   %ebx
     64f:	5f                   	pop    %edi
     650:	51                   	push   %ecx
     651:	55                   	push   %ebp
     652:	49                   	dec    %ecx
     653:	45                   	inc    %ebp
     654:	54                   	push   %esp
     655:	5f                   	pop    %edi
     656:	4e                   	dec    %esi
     657:	41                   	inc    %ecx
     658:	4e                   	dec    %esi
     659:	5f                   	pop    %edi
     65a:	5f                   	pop    %edi
     65b:	20 31                	and    %dh,(%ecx)
     65d:	00 5f 5f             	add    %bl,0x5f(%edi)
     660:	44                   	inc    %esp
     661:	45                   	inc    %ebp
     662:	43                   	inc    %ebx
     663:	36 34 5f             	ss xor $0x5f,%al
     666:	53                   	push   %ebx
     667:	55                   	push   %ebp
     668:	42                   	inc    %edx
     669:	4e                   	dec    %esi
     66a:	4f                   	dec    %edi
     66b:	52                   	push   %edx
     66c:	4d                   	dec    %ebp
     66d:	41                   	inc    %ecx
     66e:	4c                   	dec    %esp
     66f:	5f                   	pop    %edi
     670:	4d                   	dec    %ebp
     671:	49                   	dec    %ecx
     672:	4e                   	dec    %esi
     673:	5f                   	pop    %edi
     674:	5f                   	pop    %edi
     675:	20 30                	and    %dh,(%eax)
     677:	2e 30 30             	xor    %dh,%cs:(%eax)
     67a:	30 30                	xor    %dh,(%eax)
     67c:	30 30                	xor    %dh,(%eax)
     67e:	30 30                	xor    %dh,(%eax)
     680:	30 30                	xor    %dh,(%eax)
     682:	30 30                	xor    %dh,(%eax)
     684:	30 30                	xor    %dh,(%eax)
     686:	31 45 2d             	xor    %eax,0x2d(%ebp)
     689:	33 38                	xor    (%eax),%edi
     68b:	33 44 44 00          	xor    0x0(%esp,%eax,2),%eax
     68f:	5f                   	pop    %edi
     690:	5f                   	pop    %edi
     691:	53                   	push   %ebx
     692:	43                   	inc    %ebx
     693:	48                   	dec    %eax
     694:	41                   	inc    %ecx
     695:	52                   	push   %edx
     696:	5f                   	pop    %edi
     697:	57                   	push   %edi
     698:	49                   	dec    %ecx
     699:	44                   	inc    %esp
     69a:	54                   	push   %esp
     69b:	48                   	dec    %eax
     69c:	5f                   	pop    %edi
     69d:	5f                   	pop    %edi
     69e:	20 38                	and    %bh,(%eax)
     6a0:	00 5f 5f             	add    %bl,0x5f(%edi)
     6a3:	4c                   	dec    %esp
     6a4:	44                   	inc    %esp
     6a5:	42                   	inc    %edx
     6a6:	4c                   	dec    %esp
     6a7:	5f                   	pop    %edi
     6a8:	45                   	inc    %ebp
     6a9:	50                   	push   %eax
     6aa:	53                   	push   %ebx
     6ab:	49                   	dec    %ecx
     6ac:	4c                   	dec    %esp
     6ad:	4f                   	dec    %edi
     6ae:	4e                   	dec    %esi
     6af:	5f                   	pop    %edi
     6b0:	5f                   	pop    %edi
     6b1:	20 31                	and    %dh,(%ecx)
     6b3:	2e 30 38             	xor    %bh,%cs:(%eax)
     6b6:	34 32                	xor    $0x32,%al
     6b8:	30 32                	xor    %dh,(%edx)
     6ba:	31 37                	xor    %esi,(%edi)
     6bc:	32 34 38             	xor    (%eax,%edi,1),%dh
     6bf:	35 35 30 34 34       	xor    $0x34343035,%eax
     6c4:	33 34 30             	xor    (%eax,%esi,1),%esi
     6c7:	30 37                	xor    %dh,(%edi)
     6c9:	34 35                	xor    $0x35,%al
     6cb:	32 38                	xor    (%eax),%bh
     6cd:	30 30                	xor    %dh,(%eax)
     6cf:	38 36                	cmp    %dh,(%esi)
     6d1:	39 39                	cmp    %edi,(%ecx)
     6d3:	34 31                	xor    $0x31,%al
     6d5:	37                   	aaa    
     6d6:	31 65 2d             	xor    %esp,0x2d(%ebp)
     6d9:	31 39                	xor    %edi,(%ecx)
     6db:	4c                   	dec    %esp
     6dc:	00 5f 5f             	add    %bl,0x5f(%edi)
     6df:	47                   	inc    %edi
     6e0:	43                   	inc    %ebx
     6e1:	43                   	inc    %ebx
     6e2:	5f                   	pop    %edi
     6e3:	41                   	inc    %ecx
     6e4:	53                   	push   %ebx
     6e5:	4d                   	dec    %ebp
     6e6:	5f                   	pop    %edi
     6e7:	46                   	inc    %esi
     6e8:	4c                   	dec    %esp
     6e9:	41                   	inc    %ecx
     6ea:	47                   	inc    %edi
     6eb:	5f                   	pop    %edi
     6ec:	4f                   	dec    %edi
     6ed:	55                   	push   %ebp
     6ee:	54                   	push   %esp
     6ef:	50                   	push   %eax
     6f0:	55                   	push   %ebp
     6f1:	54                   	push   %esp
     6f2:	53                   	push   %ebx
     6f3:	5f                   	pop    %edi
     6f4:	5f                   	pop    %edi
     6f5:	20 31                	and    %dh,(%ecx)
     6f7:	00 5f 5f             	add    %bl,0x5f(%edi)
     6fa:	44                   	inc    %esp
     6fb:	42                   	inc    %edx
     6fc:	4c                   	dec    %esp
     6fd:	5f                   	pop    %edi
     6fe:	4d                   	dec    %ebp
     6ff:	41                   	inc    %ecx
     700:	4e                   	dec    %esi
     701:	54                   	push   %esp
     702:	5f                   	pop    %edi
     703:	44                   	inc    %esp
     704:	49                   	dec    %ecx
     705:	47                   	inc    %edi
     706:	5f                   	pop    %edi
     707:	5f                   	pop    %edi
     708:	20 35 33 00 5f 5f    	and    %dh,0x5f5f0033
     70e:	55                   	push   %ebp
     70f:	49                   	dec    %ecx
     710:	4e                   	dec    %esi
     711:	54                   	push   %esp
     712:	5f                   	pop    %edi
     713:	4c                   	dec    %esp
     714:	45                   	inc    %ebp
     715:	41                   	inc    %ecx
     716:	53                   	push   %ebx
     717:	54                   	push   %esp
     718:	36 34 5f             	ss xor $0x5f,%al
     71b:	54                   	push   %esp
     71c:	59                   	pop    %ecx
     71d:	50                   	push   %eax
     71e:	45                   	inc    %ebp
     71f:	5f                   	pop    %edi
     720:	5f                   	pop    %edi
     721:	20 6c 6f 6e          	and    %ch,0x6e(%edi,%ebp,2)
     725:	67 20 6c 6f          	and    %ch,0x6f(%si)
     729:	6e                   	outsb  %ds:(%esi),(%dx)
     72a:	67 20 75 6e          	and    %dh,0x6e(%di)
     72e:	73 69                	jae    799 <_GLOBAL_OFFSET_TABLE_+0x285>
     730:	67 6e                	outsb  %ds:(%si),(%dx)
     732:	65 64 20 69 6e       	gs and %ch,%fs:0x6e(%ecx)
     737:	74 00                	je     739 <_GLOBAL_OFFSET_TABLE_+0x225>
     739:	5f                   	pop    %edi
     73a:	5f                   	pop    %edi
     73b:	49                   	dec    %ecx
     73c:	4e                   	dec    %esi
     73d:	54                   	push   %esp
     73e:	5f                   	pop    %edi
     73f:	46                   	inc    %esi
     740:	41                   	inc    %ecx
     741:	53                   	push   %ebx
     742:	54                   	push   %esp
     743:	38 5f 4d             	cmp    %bl,0x4d(%edi)
     746:	41                   	inc    %ecx
     747:	58                   	pop    %eax
     748:	5f                   	pop    %edi
     749:	5f                   	pop    %edi
     74a:	20 30                	and    %dh,(%eax)
     74c:	78 37                	js     785 <_GLOBAL_OFFSET_TABLE_+0x271>
     74e:	66 00 5f 5f          	data16 add %bl,0x5f(%edi)
     752:	44                   	inc    %esp
     753:	42                   	inc    %edx
     754:	4c                   	dec    %esp
     755:	5f                   	pop    %edi
     756:	48                   	dec    %eax
     757:	41                   	inc    %ecx
     758:	53                   	push   %ebx
     759:	5f                   	pop    %edi
     75a:	51                   	push   %ecx
     75b:	55                   	push   %ebp
     75c:	49                   	dec    %ecx
     75d:	45                   	inc    %ebp
     75e:	54                   	push   %esp
     75f:	5f                   	pop    %edi
     760:	4e                   	dec    %esi
     761:	41                   	inc    %ecx
     762:	4e                   	dec    %esi
     763:	5f                   	pop    %edi
     764:	5f                   	pop    %edi
     765:	20 31                	and    %dh,(%ecx)
     767:	00 5f 5f             	add    %bl,0x5f(%edi)
     76a:	49                   	dec    %ecx
     76b:	4e                   	dec    %esi
     76c:	54                   	push   %esp
     76d:	5f                   	pop    %edi
     76e:	4c                   	dec    %esp
     76f:	45                   	inc    %ebp
     770:	41                   	inc    %ecx
     771:	53                   	push   %ebx
     772:	54                   	push   %esp
     773:	36 34 5f             	ss xor $0x5f,%al
     776:	4d                   	dec    %ebp
     777:	41                   	inc    %ecx
     778:	58                   	pop    %eax
     779:	5f                   	pop    %edi
     77a:	5f                   	pop    %edi
     77b:	20 30                	and    %dh,(%eax)
     77d:	78 37                	js     7b6 <_GLOBAL_OFFSET_TABLE_+0x2a2>
     77f:	66 66 66 66 66 66 66 	data16 data16 data16 data16 data16 data16 data16 data16 data16 data16 data16 data16 data16 data16
     786:	66 66 66 66 66 66 66 
     78d:	66 4c                	dec    %sp
     78f:	4c                   	dec    %esp
     790:	00 5f 5f             	add    %bl,0x5f(%edi)
     793:	53                   	push   %ebx
     794:	48                   	dec    %eax
     795:	52                   	push   %edx
     796:	54                   	push   %esp
     797:	5f                   	pop    %edi
     798:	57                   	push   %edi
     799:	49                   	dec    %ecx
     79a:	44                   	inc    %esp
     79b:	54                   	push   %esp
     79c:	48                   	dec    %eax
     79d:	5f                   	pop    %edi
     79e:	5f                   	pop    %edi
     79f:	20 31                	and    %dh,(%ecx)
     7a1:	36 00 5f 5f          	add    %bl,%ss:0x5f(%edi)
     7a5:	44                   	inc    %esp
     7a6:	45                   	inc    %ebp
     7a7:	43                   	inc    %ebx
     7a8:	33 32                	xor    (%edx),%esi
     7aa:	5f                   	pop    %edi
     7ab:	4d                   	dec    %ebp
     7ac:	41                   	inc    %ecx
     7ad:	58                   	pop    %eax
     7ae:	5f                   	pop    %edi
     7af:	45                   	inc    %ebp
     7b0:	58                   	pop    %eax
     7b1:	50                   	push   %eax
     7b2:	5f                   	pop    %edi
     7b3:	5f                   	pop    %edi
     7b4:	20 39                	and    %bh,(%ecx)
     7b6:	37                   	aaa    
     7b7:	00 5f 5f             	add    %bl,0x5f(%edi)
     7ba:	49                   	dec    %ecx
     7bb:	4e                   	dec    %esi
     7bc:	54                   	push   %esp
     7bd:	33 32                	xor    (%edx),%esi
     7bf:	5f                   	pop    %edi
     7c0:	54                   	push   %esp
     7c1:	59                   	pop    %ecx
     7c2:	50                   	push   %eax
     7c3:	45                   	inc    %ebp
     7c4:	5f                   	pop    %edi
     7c5:	5f                   	pop    %edi
     7c6:	20 69 6e             	and    %ch,0x6e(%ecx)
     7c9:	74 00                	je     7cb <_GLOBAL_OFFSET_TABLE_+0x2b7>
     7cb:	5f                   	pop    %edi
     7cc:	5f                   	pop    %edi
     7cd:	53                   	push   %ebx
     7ce:	49                   	dec    %ecx
     7cf:	47                   	inc    %edi
     7d0:	5f                   	pop    %edi
     7d1:	41                   	inc    %ecx
     7d2:	54                   	push   %esp
     7d3:	4f                   	dec    %edi
     7d4:	4d                   	dec    %ebp
     7d5:	49                   	dec    %ecx
     7d6:	43                   	inc    %ebx
     7d7:	5f                   	pop    %edi
     7d8:	54                   	push   %esp
     7d9:	59                   	pop    %ecx
     7da:	50                   	push   %eax
     7db:	45                   	inc    %ebp
     7dc:	5f                   	pop    %edi
     7dd:	5f                   	pop    %edi
     7de:	20 69 6e             	and    %ch,0x6e(%ecx)
     7e1:	74 00                	je     7e3 <_GLOBAL_OFFSET_TABLE_+0x2cf>
     7e3:	5f                   	pop    %edi
     7e4:	5f                   	pop    %edi
     7e5:	46                   	inc    %esi
     7e6:	4c                   	dec    %esp
     7e7:	54                   	push   %esp
     7e8:	33 32                	xor    (%edx),%esi
     7ea:	5f                   	pop    %edi
     7eb:	4e                   	dec    %esi
     7ec:	4f                   	dec    %edi
     7ed:	52                   	push   %edx
     7ee:	4d                   	dec    %ebp
     7ef:	5f                   	pop    %edi
     7f0:	4d                   	dec    %ebp
     7f1:	41                   	inc    %ecx
     7f2:	58                   	pop    %eax
     7f3:	5f                   	pop    %edi
     7f4:	5f                   	pop    %edi
     7f5:	20 33                	and    %dh,(%ebx)
     7f7:	2e 34 30             	cs xor $0x30,%al
     7fa:	32 38                	xor    (%eax),%bh
     7fc:	32 33                	xor    (%ebx),%dh
     7fe:	34 36                	xor    $0x36,%al
     800:	36 33 38             	xor    %ss:(%eax),%edi
     803:	35 32 38 38 35       	xor    $0x35383832,%eax
     808:	39 38                	cmp    %edi,(%eax)
     80a:	31 31                	xor    %esi,(%ecx)
     80c:	37                   	aaa    
     80d:	30 34 31             	xor    %dh,(%ecx,%esi,1)
     810:	38 33                	cmp    %dh,(%ebx)
     812:	34 38                	xor    $0x38,%al
     814:	34 35                	xor    $0x35,%al
     816:	31 36                	xor    %esi,(%esi)
     818:	39 32                	cmp    %esi,(%edx)
     81a:	35 65 2b 33 38       	xor    $0x38332b65,%eax
     81f:	46                   	inc    %esi
     820:	33 32                	xor    (%edx),%esi
     822:	00 5f 5f             	add    %bl,0x5f(%edi)
     825:	46                   	inc    %esi
     826:	4c                   	dec    %esp
     827:	54                   	push   %esp
     828:	33 32                	xor    (%edx),%esi
     82a:	5f                   	pop    %edi
     82b:	4d                   	dec    %ebp
     82c:	41                   	inc    %ecx
     82d:	58                   	pop    %eax
     82e:	5f                   	pop    %edi
     82f:	5f                   	pop    %edi
     830:	20 33                	and    %dh,(%ebx)
     832:	2e 34 30             	cs xor $0x30,%al
     835:	32 38                	xor    (%eax),%bh
     837:	32 33                	xor    (%ebx),%dh
     839:	34 36                	xor    $0x36,%al
     83b:	36 33 38             	xor    %ss:(%eax),%edi
     83e:	35 32 38 38 35       	xor    $0x35383832,%eax
     843:	39 38                	cmp    %edi,(%eax)
     845:	31 31                	xor    %esi,(%ecx)
     847:	37                   	aaa    
     848:	30 34 31             	xor    %dh,(%ecx,%esi,1)
     84b:	38 33                	cmp    %dh,(%ebx)
     84d:	34 38                	xor    $0x38,%al
     84f:	34 35                	xor    $0x35,%al
     851:	31 36                	xor    %esi,(%esi)
     853:	39 32                	cmp    %esi,(%edx)
     855:	35 65 2b 33 38       	xor    $0x38332b65,%eax
     85a:	46                   	inc    %esi
     85b:	33 32                	xor    (%edx),%esi
     85d:	00 5f 5f             	add    %bl,0x5f(%edi)
     860:	56                   	push   %esi
     861:	45                   	inc    %ebp
     862:	52                   	push   %edx
     863:	53                   	push   %ebx
     864:	49                   	dec    %ecx
     865:	4f                   	dec    %edi
     866:	4e                   	dec    %esi
     867:	5f                   	pop    %edi
     868:	5f                   	pop    %edi
     869:	20 22                	and    %ah,(%edx)
     86b:	31 31                	xor    %esi,(%ecx)
     86d:	2e 34 2e             	cs xor $0x2e,%al
     870:	30 22                	xor    %ah,(%edx)
     872:	00 5f 5f             	add    %bl,0x5f(%edi)
     875:	49                   	dec    %ecx
     876:	4e                   	dec    %esi
     877:	54                   	push   %esp
     878:	5f                   	pop    %edi
     879:	4c                   	dec    %esp
     87a:	45                   	inc    %ebp
     87b:	41                   	inc    %ecx
     87c:	53                   	push   %ebx
     87d:	54                   	push   %esp
     87e:	31 36                	xor    %esi,(%esi)
     880:	5f                   	pop    %edi
     881:	57                   	push   %edi
     882:	49                   	dec    %ecx
     883:	44                   	inc    %esp
     884:	54                   	push   %esp
     885:	48                   	dec    %eax
     886:	5f                   	pop    %edi
     887:	5f                   	pop    %edi
     888:	20 31                	and    %dh,(%ecx)
     88a:	36 00 5f 5f          	add    %bl,%ss:0x5f(%edi)
     88e:	46                   	inc    %esi
     88f:	4c                   	dec    %esp
     890:	54                   	push   %esp
     891:	33 32                	xor    (%edx),%esi
     893:	5f                   	pop    %edi
     894:	48                   	dec    %eax
     895:	41                   	inc    %ecx
     896:	53                   	push   %ebx
     897:	5f                   	pop    %edi
     898:	49                   	dec    %ecx
     899:	4e                   	dec    %esi
     89a:	46                   	inc    %esi
     89b:	49                   	dec    %ecx
     89c:	4e                   	dec    %esi
     89d:	49                   	dec    %ecx
     89e:	54                   	push   %esp
     89f:	59                   	pop    %ecx
     8a0:	5f                   	pop    %edi
     8a1:	5f                   	pop    %edi
     8a2:	20 31                	and    %dh,(%ecx)
     8a4:	00 5f 5f             	add    %bl,0x5f(%edi)
     8a7:	4c                   	dec    %esp
     8a8:	44                   	inc    %esp
     8a9:	42                   	inc    %edx
     8aa:	4c                   	dec    %esp
     8ab:	5f                   	pop    %edi
     8ac:	48                   	dec    %eax
     8ad:	41                   	inc    %ecx
     8ae:	53                   	push   %ebx
     8af:	5f                   	pop    %edi
     8b0:	49                   	dec    %ecx
     8b1:	4e                   	dec    %esi
     8b2:	46                   	inc    %esi
     8b3:	49                   	dec    %ecx
     8b4:	4e                   	dec    %esi
     8b5:	49                   	dec    %ecx
     8b6:	54                   	push   %esp
     8b7:	59                   	pop    %ecx
     8b8:	5f                   	pop    %edi
     8b9:	5f                   	pop    %edi
     8ba:	20 31                	and    %dh,(%ecx)
     8bc:	00 5f 5f             	add    %bl,0x5f(%edi)
     8bf:	46                   	inc    %esi
     8c0:	4c                   	dec    %esp
     8c1:	54                   	push   %esp
     8c2:	5f                   	pop    %edi
     8c3:	48                   	dec    %eax
     8c4:	41                   	inc    %ecx
     8c5:	53                   	push   %ebx
     8c6:	5f                   	pop    %edi
     8c7:	44                   	inc    %esp
     8c8:	45                   	inc    %ebp
     8c9:	4e                   	dec    %esi
     8ca:	4f                   	dec    %edi
     8cb:	52                   	push   %edx
     8cc:	4d                   	dec    %ebp
     8cd:	5f                   	pop    %edi
     8ce:	5f                   	pop    %edi
     8cf:	20 31                	and    %dh,(%ecx)
     8d1:	00 5f 5f             	add    %bl,0x5f(%edi)
     8d4:	46                   	inc    %esi
     8d5:	4c                   	dec    %esp
     8d6:	54                   	push   %esp
     8d7:	31 32                	xor    %esi,(%edx)
     8d9:	38 5f 4d             	cmp    %bl,0x4d(%edi)
     8dc:	49                   	dec    %ecx
     8dd:	4e                   	dec    %esi
     8de:	5f                   	pop    %edi
     8df:	45                   	inc    %ebp
     8e0:	58                   	pop    %eax
     8e1:	50                   	push   %eax
     8e2:	5f                   	pop    %edi
     8e3:	5f                   	pop    %edi
     8e4:	20 28                	and    %ch,(%eax)
     8e6:	2d 31 36 33 38       	sub    $0x38333631,%eax
     8eb:	31 29                	xor    %ebp,(%ecx)
     8ed:	00 5f 5f             	add    %bl,0x5f(%edi)
     8f0:	55                   	push   %ebp
     8f1:	49                   	dec    %ecx
     8f2:	4e                   	dec    %esi
     8f3:	54                   	push   %esp
     8f4:	5f                   	pop    %edi
     8f5:	46                   	inc    %esi
     8f6:	41                   	inc    %ecx
     8f7:	53                   	push   %ebx
     8f8:	54                   	push   %esp
     8f9:	31 36                	xor    %esi,(%esi)
     8fb:	5f                   	pop    %edi
     8fc:	4d                   	dec    %ebp
     8fd:	41                   	inc    %ecx
     8fe:	58                   	pop    %eax
     8ff:	5f                   	pop    %edi
     900:	5f                   	pop    %edi
     901:	20 30                	and    %dh,(%eax)
     903:	78 66                	js     96b <_GLOBAL_OFFSET_TABLE_+0x457>
     905:	66 66 66 66 66 66 66 	data16 data16 data16 data16 data16 data16 push %bp
     90c:	55 
     90d:	00 5f 5f             	add    %bl,0x5f(%edi)
     910:	49                   	dec    %ecx
     911:	4e                   	dec    %esi
     912:	54                   	push   %esp
     913:	50                   	push   %eax
     914:	54                   	push   %esp
     915:	52                   	push   %edx
     916:	5f                   	pop    %edi
     917:	4d                   	dec    %ebp
     918:	41                   	inc    %ecx
     919:	58                   	pop    %eax
     91a:	5f                   	pop    %edi
     91b:	5f                   	pop    %edi
     91c:	20 30                	and    %dh,(%eax)
     91e:	78 37                	js     957 <_GLOBAL_OFFSET_TABLE_+0x443>
     920:	66 66 66 66 66 66 66 	data16 data16 data16 data16 data16 data16 data16 add %bl,0x5f(%edi)
     927:	00 5f 5f 
     92a:	55                   	push   %ebp
     92b:	49                   	dec    %ecx
     92c:	4e                   	dec    %esi
     92d:	54                   	push   %esp
     92e:	31 36                	xor    %esi,(%esi)
     930:	5f                   	pop    %edi
     931:	4d                   	dec    %ebp
     932:	41                   	inc    %ecx
     933:	58                   	pop    %eax
     934:	5f                   	pop    %edi
     935:	5f                   	pop    %edi
     936:	20 30                	and    %dh,(%eax)
     938:	78 66                	js     9a0 <_GLOBAL_OFFSET_TABLE_+0x48c>
     93a:	66 66 66 00 5f 5f    	data16 data16 data16 add %bl,0x5f(%edi)
     940:	47                   	inc    %edi
     941:	43                   	inc    %ebx
     942:	43                   	inc    %ebx
     943:	5f                   	pop    %edi
     944:	41                   	inc    %ecx
     945:	54                   	push   %esp
     946:	4f                   	dec    %edi
     947:	4d                   	dec    %ebp
     948:	49                   	dec    %ecx
     949:	43                   	inc    %ebx
     94a:	5f                   	pop    %edi
     94b:	57                   	push   %edi
     94c:	43                   	inc    %ebx
     94d:	48                   	dec    %eax
     94e:	41                   	inc    %ecx
     94f:	52                   	push   %edx
     950:	5f                   	pop    %edi
     951:	54                   	push   %esp
     952:	5f                   	pop    %edi
     953:	4c                   	dec    %esp
     954:	4f                   	dec    %edi
     955:	43                   	inc    %ebx
     956:	4b                   	dec    %ebx
     957:	5f                   	pop    %edi
     958:	46                   	inc    %esi
     959:	52                   	push   %edx
     95a:	45                   	inc    %ebp
     95b:	45                   	inc    %ebp
     95c:	20 32                	and    %dh,(%edx)
     95e:	00 5f 5f             	add    %bl,0x5f(%edi)
     961:	49                   	dec    %ecx
     962:	4e                   	dec    %esi
     963:	54                   	push   %esp
     964:	38 5f 54             	cmp    %bl,0x54(%edi)
     967:	59                   	pop    %ecx
     968:	50                   	push   %eax
     969:	45                   	inc    %ebp
     96a:	5f                   	pop    %edi
     96b:	5f                   	pop    %edi
     96c:	20 73 69             	and    %dh,0x69(%ebx)
     96f:	67 6e                	outsb  %ds:(%si),(%dx)
     971:	65 64 20 63 68       	gs and %ah,%fs:0x68(%ebx)
     976:	61                   	popa   
     977:	72 00                	jb     979 <_GLOBAL_OFFSET_TABLE_+0x465>
     979:	5f                   	pop    %edi
     97a:	5f                   	pop    %edi
     97b:	42                   	inc    %edx
     97c:	59                   	pop    %ecx
     97d:	54                   	push   %esp
     97e:	45                   	inc    %ebp
     97f:	5f                   	pop    %edi
     980:	4f                   	dec    %edi
     981:	52                   	push   %edx
     982:	44                   	inc    %esp
     983:	45                   	inc    %ebp
     984:	52                   	push   %edx
     985:	5f                   	pop    %edi
     986:	5f                   	pop    %edi
     987:	20 5f 5f             	and    %bl,0x5f(%edi)
     98a:	4f                   	dec    %edi
     98b:	52                   	push   %edx
     98c:	44                   	inc    %esp
     98d:	45                   	inc    %ebp
     98e:	52                   	push   %edx
     98f:	5f                   	pop    %edi
     990:	4c                   	dec    %esp
     991:	49                   	dec    %ecx
     992:	54                   	push   %esp
     993:	54                   	push   %esp
     994:	4c                   	dec    %esp
     995:	45                   	inc    %ebp
     996:	5f                   	pop    %edi
     997:	45                   	inc    %ebp
     998:	4e                   	dec    %esi
     999:	44                   	inc    %esp
     99a:	49                   	dec    %ecx
     99b:	41                   	inc    %ecx
     99c:	4e                   	dec    %esi
     99d:	5f                   	pop    %edi
     99e:	5f                   	pop    %edi
     99f:	00 5f 5f             	add    %bl,0x5f(%edi)
     9a2:	49                   	dec    %ecx
     9a3:	4e                   	dec    %esi
     9a4:	54                   	push   %esp
     9a5:	36 34 5f             	ss xor $0x5f,%al
     9a8:	4d                   	dec    %ebp
     9a9:	41                   	inc    %ecx
     9aa:	58                   	pop    %eax
     9ab:	5f                   	pop    %edi
     9ac:	5f                   	pop    %edi
     9ad:	20 30                	and    %dh,(%eax)
     9af:	78 37                	js     9e8 <_GLOBAL_OFFSET_TABLE_+0x4d4>
     9b1:	66 66 66 66 66 66 66 	data16 data16 data16 data16 data16 data16 data16 data16 data16 data16 data16 data16 data16 data16
     9b8:	66 66 66 66 66 66 66 
     9bf:	66 4c                	dec    %sp
     9c1:	4c                   	dec    %esp
     9c2:	00 5f 5f             	add    %bl,0x5f(%edi)
     9c5:	44                   	inc    %esp
     9c6:	42                   	inc    %edx
     9c7:	4c                   	dec    %esp
     9c8:	5f                   	pop    %edi
     9c9:	4e                   	dec    %esi
     9ca:	4f                   	dec    %edi
     9cb:	52                   	push   %edx
     9cc:	4d                   	dec    %ebp
     9cd:	5f                   	pop    %edi
     9ce:	4d                   	dec    %ebp
     9cf:	41                   	inc    %ecx
     9d0:	58                   	pop    %eax
     9d1:	5f                   	pop    %edi
     9d2:	5f                   	pop    %edi
     9d3:	20 28                	and    %ch,(%eax)
     9d5:	28 64 6f 75          	sub    %ah,0x75(%edi,%ebp,2)
     9d9:	62 6c 65 29          	bound  %ebp,0x29(%ebp,%eiz,2)
     9dd:	31 2e                	xor    %ebp,(%esi)
     9df:	37                   	aaa    
     9e0:	39 37                	cmp    %esi,(%edi)
     9e2:	36 39 33             	cmp    %esi,%ss:(%ebx)
     9e5:	31 33                	xor    %esi,(%ebx)
     9e7:	34 38                	xor    $0x38,%al
     9e9:	36 32 33             	xor    %ss:(%ebx),%dh
     9ec:	31 35 37 30 38 31    	xor    %esi,0x31383037
     9f2:	34 35                	xor    $0x35,%al
     9f4:	32 37                	xor    (%edi),%dh
     9f6:	34 32                	xor    $0x32,%al
     9f8:	33 37                	xor    (%edi),%esi
     9fa:	33 31                	xor    (%ecx),%esi
     9fc:	37                   	aaa    
     9fd:	30 34 33             	xor    %dh,(%ebx,%esi,1)
     a00:	35 37 65 2b 33       	xor    $0x332b6537,%eax
     a05:	30 38                	xor    %bh,(%eax)
     a07:	4c                   	dec    %esp
     a08:	29 00                	sub    %eax,(%eax)
     a0a:	5f                   	pop    %edi
     a0b:	5f                   	pop    %edi
     a0c:	46                   	inc    %esi
     a0d:	4c                   	dec    %esp
     a0e:	4f                   	dec    %edi
     a0f:	41                   	inc    %ecx
     a10:	54                   	push   %esp
     a11:	5f                   	pop    %edi
     a12:	57                   	push   %edi
     a13:	4f                   	dec    %edi
     a14:	52                   	push   %edx
     a15:	44                   	inc    %esp
     a16:	5f                   	pop    %edi
     a17:	4f                   	dec    %edi
     a18:	52                   	push   %edx
     a19:	44                   	inc    %esp
     a1a:	45                   	inc    %ebp
     a1b:	52                   	push   %edx
     a1c:	5f                   	pop    %edi
     a1d:	5f                   	pop    %edi
     a1e:	20 5f 5f             	and    %bl,0x5f(%edi)
     a21:	4f                   	dec    %edi
     a22:	52                   	push   %edx
     a23:	44                   	inc    %esp
     a24:	45                   	inc    %ebp
     a25:	52                   	push   %edx
     a26:	5f                   	pop    %edi
     a27:	4c                   	dec    %esp
     a28:	49                   	dec    %ecx
     a29:	54                   	push   %esp
     a2a:	54                   	push   %esp
     a2b:	4c                   	dec    %esp
     a2c:	45                   	inc    %ebp
     a2d:	5f                   	pop    %edi
     a2e:	45                   	inc    %ebp
     a2f:	4e                   	dec    %esi
     a30:	44                   	inc    %esp
     a31:	49                   	dec    %ecx
     a32:	41                   	inc    %ecx
     a33:	4e                   	dec    %esi
     a34:	5f                   	pop    %edi
     a35:	5f                   	pop    %edi
     a36:	00 5f 5f             	add    %bl,0x5f(%edi)
     a39:	55                   	push   %ebp
     a3a:	49                   	dec    %ecx
     a3b:	4e                   	dec    %esi
     a3c:	54                   	push   %esp
     a3d:	5f                   	pop    %edi
     a3e:	4c                   	dec    %esp
     a3f:	45                   	inc    %ebp
     a40:	41                   	inc    %ecx
     a41:	53                   	push   %ebx
     a42:	54                   	push   %esp
     a43:	31 36                	xor    %esi,(%esi)
     a45:	5f                   	pop    %edi
     a46:	4d                   	dec    %ebp
     a47:	41                   	inc    %ecx
     a48:	58                   	pop    %eax
     a49:	5f                   	pop    %edi
     a4a:	5f                   	pop    %edi
     a4b:	20 30                	and    %dh,(%eax)
     a4d:	78 66                	js     ab5 <_GLOBAL_OFFSET_TABLE_+0x5a1>
     a4f:	66 66 66 00 5f 5f    	data16 data16 data16 add %bl,0x5f(%edi)
     a55:	50                   	push   %eax
     a56:	52                   	push   %edx
     a57:	41                   	inc    %ecx
     a58:	47                   	inc    %edi
     a59:	4d                   	dec    %ebp
     a5a:	41                   	inc    %ecx
     a5b:	5f                   	pop    %edi
     a5c:	52                   	push   %edx
     a5d:	45                   	inc    %ebp
     a5e:	44                   	inc    %esp
     a5f:	45                   	inc    %ebp
     a60:	46                   	inc    %esi
     a61:	49                   	dec    %ecx
     a62:	4e                   	dec    %esi
     a63:	45                   	inc    %ebp
     a64:	5f                   	pop    %edi
     a65:	45                   	inc    %ebp
     a66:	58                   	pop    %eax
     a67:	54                   	push   %esp
     a68:	4e                   	dec    %esi
     a69:	41                   	inc    %ecx
     a6a:	4d                   	dec    %ebp
     a6b:	45                   	inc    %ebp
     a6c:	20 31                	and    %dh,(%ecx)
     a6e:	00 5f 5f             	add    %bl,0x5f(%edi)
     a71:	49                   	dec    %ecx
     a72:	4e                   	dec    %esi
     a73:	54                   	push   %esp
     a74:	5f                   	pop    %edi
     a75:	4c                   	dec    %esp
     a76:	45                   	inc    %ebp
     a77:	41                   	inc    %ecx
     a78:	53                   	push   %ebx
     a79:	54                   	push   %esp
     a7a:	31 36                	xor    %esi,(%esi)
     a7c:	5f                   	pop    %edi
     a7d:	54                   	push   %esp
     a7e:	59                   	pop    %ecx
     a7f:	50                   	push   %eax
     a80:	45                   	inc    %ebp
     a81:	5f                   	pop    %edi
     a82:	5f                   	pop    %edi
     a83:	20 73 68             	and    %dh,0x68(%ebx)
     a86:	6f                   	outsl  %ds:(%esi),(%dx)
     a87:	72 74                	jb     afd <_GLOBAL_OFFSET_TABLE_+0x5e9>
     a89:	20 69 6e             	and    %ch,0x6e(%ecx)
     a8c:	74 00                	je     a8e <_GLOBAL_OFFSET_TABLE_+0x57a>
     a8e:	5f                   	pop    %edi
     a8f:	5f                   	pop    %edi
     a90:	49                   	dec    %ecx
     a91:	4e                   	dec    %esi
     a92:	54                   	push   %esp
     a93:	5f                   	pop    %edi
     a94:	46                   	inc    %esi
     a95:	41                   	inc    %ecx
     a96:	53                   	push   %ebx
     a97:	54                   	push   %esp
     a98:	31 36                	xor    %esi,(%esi)
     a9a:	5f                   	pop    %edi
     a9b:	54                   	push   %esp
     a9c:	59                   	pop    %ecx
     a9d:	50                   	push   %eax
     a9e:	45                   	inc    %ebp
     a9f:	5f                   	pop    %edi
     aa0:	5f                   	pop    %edi
     aa1:	20 69 6e             	and    %ch,0x6e(%ecx)
     aa4:	74 00                	je     aa6 <_GLOBAL_OFFSET_TABLE_+0x592>
     aa6:	5f                   	pop    %edi
     aa7:	5f                   	pop    %edi
     aa8:	44                   	inc    %esp
     aa9:	45                   	inc    %ebp
     aaa:	43                   	inc    %ebx
     aab:	49                   	dec    %ecx
     aac:	4d                   	dec    %ebp
     aad:	41                   	inc    %ecx
     aae:	4c                   	dec    %esp
     aaf:	5f                   	pop    %edi
     ab0:	44                   	inc    %esp
     ab1:	49                   	dec    %ecx
     ab2:	47                   	inc    %edi
     ab3:	5f                   	pop    %edi
     ab4:	5f                   	pop    %edi
     ab5:	20 32                	and    %dh,(%edx)
     ab7:	31 00                	xor    %eax,(%eax)
     ab9:	5f                   	pop    %edi
     aba:	5f                   	pop    %edi
     abb:	69 36 38 36 5f 5f    	imul   $0x5f5f3638,(%esi),%esi
     ac1:	20 31                	and    %dh,(%ecx)
     ac3:	00 5f 5f             	add    %bl,0x5f(%edi)
     ac6:	49                   	dec    %ecx
     ac7:	4e                   	dec    %esi
     ac8:	54                   	push   %esp
     ac9:	4d                   	dec    %ebp
     aca:	41                   	inc    %ecx
     acb:	58                   	pop    %eax
     acc:	5f                   	pop    %edi
     acd:	4d                   	dec    %ebp
     ace:	41                   	inc    %ecx
     acf:	58                   	pop    %eax
     ad0:	5f                   	pop    %edi
     ad1:	5f                   	pop    %edi
     ad2:	20 30                	and    %dh,(%eax)
     ad4:	78 37                	js     b0d <_GLOBAL_OFFSET_TABLE_+0x5f9>
     ad6:	66 66 66 66 66 66 66 	data16 data16 data16 data16 data16 data16 data16 data16 data16 data16 data16 data16 data16 data16
     add:	66 66 66 66 66 66 66 
     ae4:	66 4c                	dec    %sp
     ae6:	4c                   	dec    %esp
     ae7:	00 5f 5f             	add    %bl,0x5f(%edi)
     aea:	69 33 38 36 20 31    	imul   $0x31203638,(%ebx),%esi
     af0:	00 5f 5f             	add    %bl,0x5f(%edi)
     af3:	46                   	inc    %esi
     af4:	4c                   	dec    %esp
     af5:	54                   	push   %esp
     af6:	33 32                	xor    (%edx),%esi
     af8:	58                   	pop    %eax
     af9:	5f                   	pop    %edi
     afa:	4d                   	dec    %ebp
     afb:	41                   	inc    %ecx
     afc:	58                   	pop    %eax
     afd:	5f                   	pop    %edi
     afe:	31 30                	xor    %esi,(%eax)
     b00:	5f                   	pop    %edi
     b01:	45                   	inc    %ebp
     b02:	58                   	pop    %eax
     b03:	50                   	push   %eax
     b04:	5f                   	pop    %edi
     b05:	5f                   	pop    %edi
     b06:	20 33                	and    %dh,(%ebx)
     b08:	30 38                	xor    %bh,(%eax)
     b0a:	00 5f 5f             	add    %bl,0x5f(%edi)
     b0d:	46                   	inc    %esi
     b0e:	4c                   	dec    %esp
     b0f:	54                   	push   %esp
     b10:	5f                   	pop    %edi
     b11:	44                   	inc    %esp
     b12:	45                   	inc    %ebp
     b13:	4e                   	dec    %esi
     b14:	4f                   	dec    %edi
     b15:	52                   	push   %edx
     b16:	4d                   	dec    %ebp
     b17:	5f                   	pop    %edi
     b18:	4d                   	dec    %ebp
     b19:	49                   	dec    %ecx
     b1a:	4e                   	dec    %esi
     b1b:	5f                   	pop    %edi
     b1c:	5f                   	pop    %edi
     b1d:	20 31                	and    %dh,(%ecx)
     b1f:	2e 34 30             	cs xor $0x30,%al
     b22:	31 32                	xor    %esi,(%edx)
     b24:	39 38                	cmp    %edi,(%eax)
     b26:	34 36                	xor    $0x36,%al
     b28:	34 33                	xor    $0x33,%al
     b2a:	32 34 38             	xor    (%eax,%edi,1),%dh
     b2d:	31 37                	xor    %esi,(%edi)
     b2f:	30 37                	xor    %dh,(%edi)
     b31:	30 39                	xor    %bh,(%ecx)
     b33:	32 33                	xor    (%ebx),%dh
     b35:	37                   	aaa    
     b36:	32 39                	xor    (%ecx),%bh
     b38:	35 38 33 32 38       	xor    $0x38323338,%eax
     b3d:	39 39                	cmp    %edi,(%ecx)
     b3f:	31 36                	xor    %esi,(%esi)
     b41:	31 33                	xor    %esi,(%ebx)
     b43:	65 2d 34 35 46 00    	gs sub $0x463534,%eax
     b49:	5f                   	pop    %edi
     b4a:	5f                   	pop    %edi
     b4b:	4c                   	dec    %esp
     b4c:	44                   	inc    %esp
     b4d:	42                   	inc    %edx
     b4e:	4c                   	dec    %esp
     b4f:	5f                   	pop    %edi
     b50:	48                   	dec    %eax
     b51:	41                   	inc    %ecx
     b52:	53                   	push   %ebx
     b53:	5f                   	pop    %edi
     b54:	51                   	push   %ecx
     b55:	55                   	push   %ebp
     b56:	49                   	dec    %ecx
     b57:	45                   	inc    %ebp
     b58:	54                   	push   %esp
     b59:	5f                   	pop    %edi
     b5a:	4e                   	dec    %esi
     b5b:	41                   	inc    %ecx
     b5c:	4e                   	dec    %esi
     b5d:	5f                   	pop    %edi
     b5e:	5f                   	pop    %edi
     b5f:	20 31                	and    %dh,(%ecx)
     b61:	00 5f 5f             	add    %bl,0x5f(%edi)
     b64:	53                   	push   %ebx
     b65:	49                   	dec    %ecx
     b66:	5a                   	pop    %edx
     b67:	45                   	inc    %ebp
     b68:	4f                   	dec    %edi
     b69:	46                   	inc    %esi
     b6a:	5f                   	pop    %edi
     b6b:	44                   	inc    %esp
     b6c:	4f                   	dec    %edi
     b6d:	55                   	push   %ebp
     b6e:	42                   	inc    %edx
     b6f:	4c                   	dec    %esp
     b70:	45                   	inc    %ebp
     b71:	5f                   	pop    %edi
     b72:	5f                   	pop    %edi
     b73:	20 38                	and    %bh,(%eax)
     b75:	00 5f 5f             	add    %bl,0x5f(%edi)
     b78:	55                   	push   %ebp
     b79:	49                   	dec    %ecx
     b7a:	4e                   	dec    %esi
     b7b:	54                   	push   %esp
     b7c:	38 5f 4d             	cmp    %bl,0x4d(%edi)
     b7f:	41                   	inc    %ecx
     b80:	58                   	pop    %eax
     b81:	5f                   	pop    %edi
     b82:	5f                   	pop    %edi
     b83:	20 30                	and    %dh,(%eax)
     b85:	78 66                	js     bed <_GLOBAL_OFFSET_TABLE_+0x6d9>
     b87:	66 00 5f 5f          	data16 add %bl,0x5f(%edi)
     b8b:	53                   	push   %ebx
     b8c:	49                   	dec    %ecx
     b8d:	5a                   	pop    %edx
     b8e:	45                   	inc    %ebp
     b8f:	5f                   	pop    %edi
     b90:	4d                   	dec    %ebp
     b91:	41                   	inc    %ecx
     b92:	58                   	pop    %eax
     b93:	5f                   	pop    %edi
     b94:	5f                   	pop    %edi
     b95:	20 30                	and    %dh,(%eax)
     b97:	78 66                	js     bff <_GLOBAL_OFFSET_TABLE_+0x6eb>
     b99:	66 66 66 66 66 66 66 	data16 data16 data16 data16 data16 data16 push %bp
     ba0:	55 
     ba1:	00 5f 5f             	add    %bl,0x5f(%edi)
     ba4:	46                   	inc    %esi
     ba5:	4c                   	dec    %esp
     ba6:	54                   	push   %esp
     ba7:	36 34 58             	ss xor $0x58,%al
     baa:	5f                   	pop    %edi
     bab:	4e                   	dec    %esi
     bac:	4f                   	dec    %edi
     bad:	52                   	push   %edx
     bae:	4d                   	dec    %ebp
     baf:	5f                   	pop    %edi
     bb0:	4d                   	dec    %ebp
     bb1:	41                   	inc    %ecx
     bb2:	58                   	pop    %eax
     bb3:	5f                   	pop    %edi
     bb4:	5f                   	pop    %edi
     bb5:	20 31                	and    %dh,(%ecx)
     bb7:	2e 31 38             	xor    %edi,%cs:(%eax)
     bba:	39 37                	cmp    %esi,(%edi)
     bbc:	33 31                	xor    (%ecx),%esi
     bbe:	34 39                	xor    $0x39,%al
     bc0:	35 33 35 37 32       	xor    $0x32373533,%eax
     bc5:	33 31                	xor    (%ecx),%esi
     bc7:	37                   	aaa    
     bc8:	36 35 30 32 31 32    	ss xor $0x32313230,%eax
     bce:	36 33 38             	xor    %ss:(%eax),%edi
     bd1:	35 33 30 33 30       	xor    $0x30333033,%eax
     bd6:	39 37                	cmp    %esi,(%edi)
     bd8:	30 32                	xor    %dh,(%edx)
     bda:	31 65 2b             	xor    %esp,0x2b(%ebp)
     bdd:	34 39                	xor    $0x39,%al
     bdf:	33 32                	xor    (%edx),%esi
     be1:	46                   	inc    %esi
     be2:	36 34 78             	ss xor $0x78,%al
     be5:	00 47 4e             	add    %al,0x4e(%edi)
     be8:	55                   	push   %ebp
     be9:	20 43 31             	and    %al,0x31(%ebx)
     bec:	37                   	aaa    
     bed:	20 31                	and    %dh,(%ecx)
     bef:	31 2e                	xor    %ebp,(%esi)
     bf1:	34 2e                	xor    $0x2e,%al
     bf3:	30 20                	xor    %ah,(%eax)
     bf5:	2d 6d 33 32 20       	sub    $0x2032336d,%eax
     bfa:	2d 6d 74 75 6e       	sub    $0x6e75746d,%eax
     bff:	65 3d 67 65 6e 65    	gs cmp $0x656e6567,%eax
     c05:	72 69                	jb     c70 <_GLOBAL_OFFSET_TABLE_+0x75c>
     c07:	63 20                	arpl   %sp,(%eax)
     c09:	2d 6d 61 72 63       	sub    $0x6372616d,%eax
     c0e:	68 3d 69 36 38       	push   $0x3836693d
     c13:	36 20 2d 67 64 77 61 	and    %ch,%ss:0x61776467
     c1a:	72 66                	jb     c82 <_GLOBAL_OFFSET_TABLE_+0x76e>
     c1c:	2d 34 20 2d 67       	sub    $0x672d2034,%eax
     c21:	67 64 62 33          	bound  %esi,%fs:(%bp,%di)
     c25:	20 2d 66 66 72 65    	and    %ch,0x65726666
     c2b:	65 73 74             	gs jae ca2 <_GLOBAL_OFFSET_TABLE_+0x78e>
     c2e:	61                   	popa   
     c2f:	6e                   	outsb  %ds:(%esi),(%dx)
     c30:	64 69 6e 67 20 2d 66 	imul   $0x61662d20,%fs:0x67(%esi),%ebp
     c37:	61 
     c38:	73 79                	jae    cb3 <_GLOBAL_OFFSET_TABLE_+0x79f>
     c3a:	6e                   	outsb  %ds:(%esi),(%dx)
     c3b:	63 68 72             	arpl   %bp,0x72(%eax)
     c3e:	6f                   	outsl  %ds:(%esi),(%dx)
     c3f:	6e                   	outsb  %ds:(%esi),(%dx)
     c40:	6f                   	outsl  %ds:(%esi),(%dx)
     c41:	75 73                	jne    cb6 <_GLOBAL_OFFSET_TABLE_+0x7a2>
     c43:	2d 75 6e 77 69       	sub    $0x69776e75,%eax
     c48:	6e                   	outsb  %ds:(%esi),(%dx)
     c49:	64 2d 74 61 62 6c    	fs sub $0x6c626174,%eax
     c4f:	65 73 20             	gs jae c72 <_GLOBAL_OFFSET_TABLE_+0x75e>
     c52:	2d 66 73 74 61       	sub    $0x61747366,%eax
     c57:	63 6b 2d             	arpl   %bp,0x2d(%ebx)
     c5a:	63 6c 61 73          	arpl   %bp,0x73(%ecx,%eiz,2)
     c5e:	68 2d 70 72 6f       	push   $0x6f72702d
     c63:	74 65                	je     cca <_GLOBAL_OFFSET_TABLE_+0x7b6>
     c65:	63 74 69 6f          	arpl   %si,0x6f(%ecx,%ebp,2)
     c69:	6e                   	outsb  %ds:(%esi),(%dx)
     c6a:	00 5f 5f             	add    %bl,0x5f(%edi)
     c6d:	46                   	inc    %esi
     c6e:	4c                   	dec    %esp
     c6f:	54                   	push   %esp
     c70:	33 32                	xor    (%edx),%esi
     c72:	5f                   	pop    %edi
     c73:	4d                   	dec    %ebp
     c74:	41                   	inc    %ecx
     c75:	58                   	pop    %eax
     c76:	5f                   	pop    %edi
     c77:	45                   	inc    %ebp
     c78:	58                   	pop    %eax
     c79:	50                   	push   %eax
     c7a:	5f                   	pop    %edi
     c7b:	5f                   	pop    %edi
     c7c:	20 31                	and    %dh,(%ecx)
     c7e:	32 38                	xor    (%eax),%bh
     c80:	00 5f 5f             	add    %bl,0x5f(%edi)
     c83:	50                   	push   %eax
     c84:	49                   	dec    %ecx
     c85:	43                   	inc    %ebx
     c86:	5f                   	pop    %edi
     c87:	5f                   	pop    %edi
     c88:	20 32                	and    %dh,(%edx)
     c8a:	00 5f 5f             	add    %bl,0x5f(%edi)
     c8d:	46                   	inc    %esi
     c8e:	4c                   	dec    %esp
     c8f:	54                   	push   %esp
     c90:	36 34 5f             	ss xor $0x5f,%al
     c93:	4d                   	dec    %ebp
     c94:	41                   	inc    %ecx
     c95:	58                   	pop    %eax
     c96:	5f                   	pop    %edi
     c97:	45                   	inc    %ebp
     c98:	58                   	pop    %eax
     c99:	50                   	push   %eax
     c9a:	5f                   	pop    %edi
     c9b:	5f                   	pop    %edi
     c9c:	20 31                	and    %dh,(%ecx)
     c9e:	30 32                	xor    %dh,(%edx)
     ca0:	34 00                	xor    $0x0,%al
     ca2:	5f                   	pop    %edi
     ca3:	5f                   	pop    %edi
     ca4:	49                   	dec    %ecx
     ca5:	4e                   	dec    %esi
     ca6:	54                   	push   %esp
     ca7:	50                   	push   %eax
     ca8:	54                   	push   %esp
     ca9:	52                   	push   %edx
     caa:	5f                   	pop    %edi
     cab:	57                   	push   %edi
     cac:	49                   	dec    %ecx
     cad:	44                   	inc    %esp
     cae:	54                   	push   %esp
     caf:	48                   	dec    %eax
     cb0:	5f                   	pop    %edi
     cb1:	5f                   	pop    %edi
     cb2:	20 33                	and    %dh,(%ebx)
     cb4:	32 00                	xor    (%eax),%al
     cb6:	5f                   	pop    %edi
     cb7:	5f                   	pop    %edi
     cb8:	53                   	push   %ebx
     cb9:	49                   	dec    %ecx
     cba:	5a                   	pop    %edx
     cbb:	45                   	inc    %ebp
     cbc:	5f                   	pop    %edi
     cbd:	57                   	push   %edi
     cbe:	49                   	dec    %ecx
     cbf:	44                   	inc    %esp
     cc0:	54                   	push   %esp
     cc1:	48                   	dec    %eax
     cc2:	5f                   	pop    %edi
     cc3:	5f                   	pop    %edi
     cc4:	20 33                	and    %dh,(%ebx)
     cc6:	32 00                	xor    (%eax),%al
     cc8:	5f                   	pop    %edi
     cc9:	5f                   	pop    %edi
     cca:	44                   	inc    %esp
     ccb:	45                   	inc    %ebp
     ccc:	43                   	inc    %ebx
     ccd:	49                   	dec    %ecx
     cce:	4d                   	dec    %ebp
     ccf:	41                   	inc    %ecx
     cd0:	4c                   	dec    %esp
     cd1:	5f                   	pop    %edi
     cd2:	42                   	inc    %edx
     cd3:	49                   	dec    %ecx
     cd4:	44                   	inc    %esp
     cd5:	5f                   	pop    %edi
     cd6:	46                   	inc    %esi
     cd7:	4f                   	dec    %edi
     cd8:	52                   	push   %edx
     cd9:	4d                   	dec    %ebp
     cda:	41                   	inc    %ecx
     cdb:	54                   	push   %esp
     cdc:	5f                   	pop    %edi
     cdd:	5f                   	pop    %edi
     cde:	20 31                	and    %dh,(%ecx)
     ce0:	00 5f 5f             	add    %bl,0x5f(%edi)
     ce3:	47                   	inc    %edi
     ce4:	43                   	inc    %ebx
     ce5:	43                   	inc    %ebx
     ce6:	5f                   	pop    %edi
     ce7:	41                   	inc    %ecx
     ce8:	54                   	push   %esp
     ce9:	4f                   	dec    %edi
     cea:	4d                   	dec    %ebp
     ceb:	49                   	dec    %ecx
     cec:	43                   	inc    %ebx
     ced:	5f                   	pop    %edi
     cee:	43                   	inc    %ebx
     cef:	48                   	dec    %eax
     cf0:	41                   	inc    %ecx
     cf1:	52                   	push   %edx
     cf2:	33 32                	xor    (%edx),%esi
     cf4:	5f                   	pop    %edi
     cf5:	54                   	push   %esp
     cf6:	5f                   	pop    %edi
     cf7:	4c                   	dec    %esp
     cf8:	4f                   	dec    %edi
     cf9:	43                   	inc    %ebx
     cfa:	4b                   	dec    %ebx
     cfb:	5f                   	pop    %edi
     cfc:	46                   	inc    %esi
     cfd:	52                   	push   %edx
     cfe:	45                   	inc    %ebp
     cff:	45                   	inc    %ebp
     d00:	20 32                	and    %dh,(%edx)
     d02:	00 5f 5f             	add    %bl,0x5f(%edi)
     d05:	69 36 38 36 20 31    	imul   $0x31203638,(%esi),%esi
     d0b:	00 5f 5f             	add    %bl,0x5f(%edi)
     d0e:	49                   	dec    %ecx
     d0f:	4e                   	dec    %esi
     d10:	54                   	push   %esp
     d11:	50                   	push   %eax
     d12:	54                   	push   %esp
     d13:	52                   	push   %edx
     d14:	5f                   	pop    %edi
     d15:	54                   	push   %esp
     d16:	59                   	pop    %ecx
     d17:	50                   	push   %eax
     d18:	45                   	inc    %ebp
     d19:	5f                   	pop    %edi
     d1a:	5f                   	pop    %edi
     d1b:	20 69 6e             	and    %ch,0x6e(%ecx)
     d1e:	74 00                	je     d20 <_GLOBAL_OFFSET_TABLE_+0x80c>
     d20:	5f                   	pop    %edi
     d21:	5f                   	pop    %edi
     d22:	55                   	push   %ebp
     d23:	49                   	dec    %ecx
     d24:	4e                   	dec    %esi
     d25:	54                   	push   %esp
     d26:	4d                   	dec    %ebp
     d27:	41                   	inc    %ecx
     d28:	58                   	pop    %eax
     d29:	5f                   	pop    %edi
     d2a:	54                   	push   %esp
     d2b:	59                   	pop    %ecx
     d2c:	50                   	push   %eax
     d2d:	45                   	inc    %ebp
     d2e:	5f                   	pop    %edi
     d2f:	5f                   	pop    %edi
     d30:	20 6c 6f 6e          	and    %ch,0x6e(%edi,%ebp,2)
     d34:	67 20 6c 6f          	and    %ch,0x6f(%si)
     d38:	6e                   	outsb  %ds:(%esi),(%dx)
     d39:	67 20 75 6e          	and    %dh,0x6e(%di)
     d3d:	73 69                	jae    da8 <_GLOBAL_OFFSET_TABLE_+0x894>
     d3f:	67 6e                	outsb  %ds:(%si),(%dx)
     d41:	65 64 20 69 6e       	gs and %ch,%fs:0x6e(%ecx)
     d46:	74 00                	je     d48 <_GLOBAL_OFFSET_TABLE_+0x834>
     d48:	5f                   	pop    %edi
     d49:	5f                   	pop    %edi
     d4a:	53                   	push   %ebx
     d4b:	49                   	dec    %ecx
     d4c:	47                   	inc    %edi
     d4d:	5f                   	pop    %edi
     d4e:	41                   	inc    %ecx
     d4f:	54                   	push   %esp
     d50:	4f                   	dec    %edi
     d51:	4d                   	dec    %ebp
     d52:	49                   	dec    %ecx
     d53:	43                   	inc    %ebx
     d54:	5f                   	pop    %edi
     d55:	57                   	push   %edi
     d56:	49                   	dec    %ecx
     d57:	44                   	inc    %esp
     d58:	54                   	push   %esp
     d59:	48                   	dec    %eax
     d5a:	5f                   	pop    %edi
     d5b:	5f                   	pop    %edi
     d5c:	20 33                	and    %dh,(%ebx)
     d5e:	32 00                	xor    (%eax),%al
     d60:	5f                   	pop    %edi
     d61:	5f                   	pop    %edi
     d62:	55                   	push   %ebp
     d63:	49                   	dec    %ecx
     d64:	4e                   	dec    %esi
     d65:	54                   	push   %esp
     d66:	5f                   	pop    %edi
     d67:	46                   	inc    %esi
     d68:	41                   	inc    %ecx
     d69:	53                   	push   %ebx
     d6a:	54                   	push   %esp
     d6b:	36 34 5f             	ss xor $0x5f,%al
     d6e:	4d                   	dec    %ebp
     d6f:	41                   	inc    %ecx
     d70:	58                   	pop    %eax
     d71:	5f                   	pop    %edi
     d72:	5f                   	pop    %edi
     d73:	20 30                	and    %dh,(%eax)
     d75:	78 66                	js     ddd <_GLOBAL_OFFSET_TABLE_+0x8c9>
     d77:	66 66 66 66 66 66 66 	data16 data16 data16 data16 data16 data16 data16 data16 data16 data16 data16 data16 data16 data16
     d7e:	66 66 66 66 66 66 66 
     d85:	66 55                	push   %bp
     d87:	4c                   	dec    %esp
     d88:	4c                   	dec    %esp
     d89:	00 5f 5f             	add    %bl,0x5f(%edi)
     d8c:	49                   	dec    %ecx
     d8d:	4e                   	dec    %esi
     d8e:	54                   	push   %esp
     d8f:	38 5f 43             	cmp    %bl,0x43(%edi)
     d92:	28 63 29             	sub    %ah,0x29(%ebx)
     d95:	20 63 00             	and    %ah,0x0(%ebx)
     d98:	5f                   	pop    %edi
     d99:	5f                   	pop    %edi
     d9a:	53                   	push   %ebx
     d9b:	49                   	dec    %ecx
     d9c:	5a                   	pop    %edx
     d9d:	45                   	inc    %ebp
     d9e:	4f                   	dec    %edi
     d9f:	46                   	inc    %esi
     da0:	5f                   	pop    %edi
     da1:	4c                   	dec    %esp
     da2:	4f                   	dec    %edi
     da3:	4e                   	dec    %esi
     da4:	47                   	inc    %edi
     da5:	5f                   	pop    %edi
     da6:	4c                   	dec    %esp
     da7:	4f                   	dec    %edi
     da8:	4e                   	dec    %esi
     da9:	47                   	inc    %edi
     daa:	5f                   	pop    %edi
     dab:	5f                   	pop    %edi
     dac:	20 38                	and    %bh,(%eax)
     dae:	00 5f 5f             	add    %bl,0x5f(%edi)
     db1:	46                   	inc    %esi
     db2:	4c                   	dec    %esp
     db3:	54                   	push   %esp
     db4:	5f                   	pop    %edi
     db5:	44                   	inc    %esp
     db6:	49                   	dec    %ecx
     db7:	47                   	inc    %edi
     db8:	5f                   	pop    %edi
     db9:	5f                   	pop    %edi
     dba:	20 36                	and    %dh,(%esi)
     dbc:	00 5f 5f             	add    %bl,0x5f(%edi)
     dbf:	4c                   	dec    %esp
     dc0:	4f                   	dec    %edi
     dc1:	4e                   	dec    %esi
     dc2:	47                   	inc    %edi
     dc3:	5f                   	pop    %edi
     dc4:	57                   	push   %edi
     dc5:	49                   	dec    %ecx
     dc6:	44                   	inc    %esp
     dc7:	54                   	push   %esp
     dc8:	48                   	dec    %eax
     dc9:	5f                   	pop    %edi
     dca:	5f                   	pop    %edi
     dcb:	20 33                	and    %dh,(%ebx)
     dcd:	32 00                	xor    (%eax),%al
     dcf:	5f                   	pop    %edi
     dd0:	5f                   	pop    %edi
     dd1:	44                   	inc    %esp
     dd2:	42                   	inc    %edx
     dd3:	4c                   	dec    %esp
     dd4:	5f                   	pop    %edi
     dd5:	44                   	inc    %esp
     dd6:	45                   	inc    %ebp
     dd7:	4e                   	dec    %esi
     dd8:	4f                   	dec    %edi
     dd9:	52                   	push   %edx
     dda:	4d                   	dec    %ebp
     ddb:	5f                   	pop    %edi
     ddc:	4d                   	dec    %ebp
     ddd:	49                   	dec    %ecx
     dde:	4e                   	dec    %esi
     ddf:	5f                   	pop    %edi
     de0:	5f                   	pop    %edi
     de1:	20 28                	and    %ch,(%eax)
     de3:	28 64 6f 75          	sub    %ah,0x75(%edi,%ebp,2)
     de7:	62 6c 65 29          	bound  %ebp,0x29(%ebp,%eiz,2)
     deb:	34 2e                	xor    $0x2e,%al
     ded:	39 34 30             	cmp    %esi,(%eax,%esi,1)
     df0:	36 35 36 34 35 38    	ss xor $0x38353436,%eax
     df6:	34 31                	xor    $0x31,%al
     df8:	32 34 36             	xor    (%esi,%esi,1),%dh
     dfb:	35 34 34 31 37       	xor    $0x37313434,%eax
     e00:	36 35 36 38 37 39    	ss xor $0x39373836,%eax
     e06:	32 38                	xor    (%eax),%bh
     e08:	36 38 32             	cmp    %dh,%ss:(%edx)
     e0b:	32 31                	xor    (%ecx),%dh
     e0d:	33 37                	xor    (%edi),%esi
     e0f:	32 65 2d             	xor    0x2d(%ebp),%ah
     e12:	33 32                	xor    (%edx),%esi
     e14:	34 4c                	xor    $0x4c,%al
     e16:	29 00                	sub    %eax,(%eax)
     e18:	5f                   	pop    %edi
     e19:	5f                   	pop    %edi
     e1a:	41                   	inc    %ecx
     e1b:	54                   	push   %esp
     e1c:	4f                   	dec    %edi
     e1d:	4d                   	dec    %ebp
     e1e:	49                   	dec    %ecx
     e1f:	43                   	inc    %ebx
     e20:	5f                   	pop    %edi
     e21:	52                   	push   %edx
     e22:	45                   	inc    %ebp
     e23:	4c                   	dec    %esp
     e24:	45                   	inc    %ebp
     e25:	41                   	inc    %ecx
     e26:	53                   	push   %ebx
     e27:	45                   	inc    %ebp
     e28:	20 33                	and    %dh,(%ebx)
     e2a:	00 5f 5f             	add    %bl,0x5f(%edi)
     e2d:	46                   	inc    %esi
     e2e:	4c                   	dec    %esp
     e2f:	54                   	push   %esp
     e30:	5f                   	pop    %edi
     e31:	4d                   	dec    %ebp
     e32:	41                   	inc    %ecx
     e33:	58                   	pop    %eax
     e34:	5f                   	pop    %edi
     e35:	31 30                	xor    %esi,(%eax)
     e37:	5f                   	pop    %edi
     e38:	45                   	inc    %ebp
     e39:	58                   	pop    %eax
     e3a:	50                   	push   %eax
     e3b:	5f                   	pop    %edi
     e3c:	5f                   	pop    %edi
     e3d:	20 33                	and    %dh,(%ebx)
     e3f:	38 00                	cmp    %al,(%eax)
     e41:	5f                   	pop    %edi
     e42:	5f                   	pop    %edi
     e43:	4e                   	dec    %esi
     e44:	4f                   	dec    %edi
     e45:	5f                   	pop    %edi
     e46:	49                   	dec    %ecx
     e47:	4e                   	dec    %esi
     e48:	4c                   	dec    %esp
     e49:	49                   	dec    %ecx
     e4a:	4e                   	dec    %esi
     e4b:	45                   	inc    %ebp
     e4c:	5f                   	pop    %edi
     e4d:	5f                   	pop    %edi
     e4e:	20 31                	and    %dh,(%ecx)
     e50:	00 5f 5f             	add    %bl,0x5f(%edi)
     e53:	57                   	push   %edi
     e54:	49                   	dec    %ecx
     e55:	4e                   	dec    %esi
     e56:	54                   	push   %esp
     e57:	5f                   	pop    %edi
     e58:	4d                   	dec    %ebp
     e59:	49                   	dec    %ecx
     e5a:	4e                   	dec    %esi
     e5b:	5f                   	pop    %edi
     e5c:	5f                   	pop    %edi
     e5d:	20 30                	and    %dh,(%eax)
     e5f:	55                   	push   %ebp
     e60:	00 5f 5f             	add    %bl,0x5f(%edi)
     e63:	44                   	inc    %esp
     e64:	45                   	inc    %ebp
     e65:	43                   	inc    %ebx
     e66:	33 32                	xor    (%edx),%esi
     e68:	5f                   	pop    %edi
     e69:	4d                   	dec    %ebp
     e6a:	49                   	dec    %ecx
     e6b:	4e                   	dec    %esi
     e6c:	5f                   	pop    %edi
     e6d:	45                   	inc    %ebp
     e6e:	58                   	pop    %eax
     e6f:	50                   	push   %eax
     e70:	5f                   	pop    %edi
     e71:	5f                   	pop    %edi
     e72:	20 28                	and    %ch,(%eax)
     e74:	2d 39 34 29 00       	sub    $0x293439,%eax
     e79:	5f                   	pop    %edi
     e7a:	5f                   	pop    %edi
     e7b:	55                   	push   %ebp
     e7c:	53                   	push   %ebx
     e7d:	45                   	inc    %ebp
     e7e:	52                   	push   %edx
     e7f:	5f                   	pop    %edi
     e80:	4c                   	dec    %esp
     e81:	41                   	inc    %ecx
     e82:	42                   	inc    %edx
     e83:	45                   	inc    %ebp
     e84:	4c                   	dec    %esp
     e85:	5f                   	pop    %edi
     e86:	50                   	push   %eax
     e87:	52                   	push   %edx
     e88:	45                   	inc    %ebp
     e89:	46                   	inc    %esi
     e8a:	49                   	dec    %ecx
     e8b:	58                   	pop    %eax
     e8c:	5f                   	pop    %edi
     e8d:	5f                   	pop    %edi
     e8e:	20 00                	and    %al,(%eax)
     e90:	5f                   	pop    %edi
     e91:	5f                   	pop    %edi
     e92:	53                   	push   %ebx
     e93:	43                   	inc    %ebx
     e94:	48                   	dec    %eax
     e95:	41                   	inc    %ecx
     e96:	52                   	push   %edx
     e97:	5f                   	pop    %edi
     e98:	4d                   	dec    %ebp
     e99:	41                   	inc    %ecx
     e9a:	58                   	pop    %eax
     e9b:	5f                   	pop    %edi
     e9c:	5f                   	pop    %edi
     e9d:	20 30                	and    %dh,(%eax)
     e9f:	78 37                	js     ed8 <_GLOBAL_OFFSET_TABLE_+0x9c4>
     ea1:	66 00 5f 5f          	data16 add %bl,0x5f(%edi)
     ea5:	46                   	inc    %esi
     ea6:	4c                   	dec    %esp
     ea7:	54                   	push   %esp
     ea8:	33 32                	xor    (%edx),%esi
     eaa:	5f                   	pop    %edi
     eab:	4d                   	dec    %ebp
     eac:	49                   	dec    %ecx
     ead:	4e                   	dec    %esi
     eae:	5f                   	pop    %edi
     eaf:	5f                   	pop    %edi
     eb0:	20 31                	and    %dh,(%ecx)
     eb2:	2e 31 37             	xor    %esi,%cs:(%edi)
     eb5:	35 34 39 34 33       	xor    $0x33343934,%eax
     eba:	35 30 38 32 32       	xor    $0x32323830,%eax
     ebf:	32 38                	xor    (%eax),%bh
     ec1:	37                   	aaa    
     ec2:	35 30 37 39 36       	xor    $0x36393730,%eax
     ec7:	38 37                	cmp    %dh,(%edi)
     ec9:	33 36                	xor    (%esi),%esi
     ecb:	35 33 37 32 32       	xor    $0x32323733,%eax
     ed0:	32 32                	xor    (%edx),%dh
     ed2:	34 35                	xor    $0x35,%al
     ed4:	36 38 65 2d          	cmp    %ah,%ss:0x2d(%ebp)
     ed8:	33 38                	xor    (%eax),%edi
     eda:	46                   	inc    %esi
     edb:	33 32                	xor    (%edx),%esi
     edd:	00 5f 5f             	add    %bl,0x5f(%edi)
     ee0:	55                   	push   %ebp
     ee1:	49                   	dec    %ecx
     ee2:	4e                   	dec    %esi
     ee3:	54                   	push   %esp
     ee4:	36 34 5f             	ss xor $0x5f,%al
     ee7:	4d                   	dec    %ebp
     ee8:	41                   	inc    %ecx
     ee9:	58                   	pop    %eax
     eea:	5f                   	pop    %edi
     eeb:	5f                   	pop    %edi
     eec:	20 30                	and    %dh,(%eax)
     eee:	78 66                	js     f56 <_GLOBAL_OFFSET_TABLE_+0xa42>
     ef0:	66 66 66 66 66 66 66 	data16 data16 data16 data16 data16 data16 data16 data16 data16 data16 data16 data16 data16 data16
     ef7:	66 66 66 66 66 66 66 
     efe:	66 55                	push   %bp
     f00:	4c                   	dec    %esp
     f01:	4c                   	dec    %esp
     f02:	00 5f 5f             	add    %bl,0x5f(%edi)
     f05:	44                   	inc    %esp
     f06:	42                   	inc    %edx
     f07:	4c                   	dec    %esp
     f08:	5f                   	pop    %edi
     f09:	49                   	dec    %ecx
     f0a:	53                   	push   %ebx
     f0b:	5f                   	pop    %edi
     f0c:	49                   	dec    %ecx
     f0d:	45                   	inc    %ebp
     f0e:	43                   	inc    %ebx
     f0f:	5f                   	pop    %edi
     f10:	36 30 35 35 39 5f 5f 	xor    %dh,%ss:0x5f5f3935
     f17:	20 32                	and    %dh,(%edx)
     f19:	00 5f 5f             	add    %bl,0x5f(%edi)
     f1c:	47                   	inc    %edi
     f1d:	4e                   	dec    %esi
     f1e:	55                   	push   %ebp
     f1f:	43                   	inc    %ebx
     f20:	5f                   	pop    %edi
     f21:	4d                   	dec    %ebp
     f22:	49                   	dec    %ecx
     f23:	4e                   	dec    %esi
     f24:	4f                   	dec    %edi
     f25:	52                   	push   %edx
     f26:	5f                   	pop    %edi
     f27:	5f                   	pop    %edi
     f28:	20 34 00             	and    %dh,(%eax,%eax,1)
     f2b:	5f                   	pop    %edi
     f2c:	5f                   	pop    %edi
     f2d:	44                   	inc    %esp
     f2e:	45                   	inc    %ebp
     f2f:	43                   	inc    %ebx
     f30:	5f                   	pop    %edi
     f31:	45                   	inc    %ebp
     f32:	56                   	push   %esi
     f33:	41                   	inc    %ecx
     f34:	4c                   	dec    %esp
     f35:	5f                   	pop    %edi
     f36:	4d                   	dec    %ebp
     f37:	45                   	inc    %ebp
     f38:	54                   	push   %esp
     f39:	48                   	dec    %eax
     f3a:	4f                   	dec    %edi
     f3b:	44                   	inc    %esp
     f3c:	5f                   	pop    %edi
     f3d:	5f                   	pop    %edi
     f3e:	20 32                	and    %dh,(%edx)
     f40:	00 5f 5f             	add    %bl,0x5f(%edi)
     f43:	44                   	inc    %esp
     f44:	45                   	inc    %ebp
     f45:	43                   	inc    %ebx
     f46:	33 32                	xor    (%edx),%esi
     f48:	5f                   	pop    %edi
     f49:	4d                   	dec    %ebp
     f4a:	41                   	inc    %ecx
     f4b:	58                   	pop    %eax
     f4c:	5f                   	pop    %edi
     f4d:	5f                   	pop    %edi
     f4e:	20 39                	and    %bh,(%ecx)
     f50:	2e 39 39             	cmp    %edi,%cs:(%ecx)
     f53:	39 39                	cmp    %edi,(%ecx)
     f55:	39 39                	cmp    %edi,(%ecx)
     f57:	45                   	inc    %ebp
     f58:	39 36                	cmp    %esi,(%esi)
     f5a:	44                   	inc    %esp
     f5b:	46                   	inc    %esi
     f5c:	00 5f 5f             	add    %bl,0x5f(%edi)
     f5f:	4c                   	dec    %esp
     f60:	4f                   	dec    %edi
     f61:	4e                   	dec    %esi
     f62:	47                   	inc    %edi
     f63:	5f                   	pop    %edi
     f64:	4c                   	dec    %esp
     f65:	4f                   	dec    %edi
     f66:	4e                   	dec    %esi
     f67:	47                   	inc    %edi
     f68:	5f                   	pop    %edi
     f69:	4d                   	dec    %ebp
     f6a:	41                   	inc    %ecx
     f6b:	58                   	pop    %eax
     f6c:	5f                   	pop    %edi
     f6d:	5f                   	pop    %edi
     f6e:	20 30                	and    %dh,(%eax)
     f70:	78 37                	js     fa9 <_GLOBAL_OFFSET_TABLE_+0xa95>
     f72:	66 66 66 66 66 66 66 	data16 data16 data16 data16 data16 data16 data16 data16 data16 data16 data16 data16 data16 data16
     f79:	66 66 66 66 66 66 66 
     f80:	66 4c                	dec    %sp
     f82:	4c                   	dec    %esp
     f83:	00 5f 5f             	add    %bl,0x5f(%edi)
     f86:	47                   	inc    %edi
     f87:	43                   	inc    %ebx
     f88:	43                   	inc    %ebx
     f89:	5f                   	pop    %edi
     f8a:	41                   	inc    %ecx
     f8b:	54                   	push   %esp
     f8c:	4f                   	dec    %edi
     f8d:	4d                   	dec    %ebp
     f8e:	49                   	dec    %ecx
     f8f:	43                   	inc    %ebx
     f90:	5f                   	pop    %edi
     f91:	42                   	inc    %edx
     f92:	4f                   	dec    %edi
     f93:	4f                   	dec    %edi
     f94:	4c                   	dec    %esp
     f95:	5f                   	pop    %edi
     f96:	4c                   	dec    %esp
     f97:	4f                   	dec    %edi
     f98:	43                   	inc    %ebx
     f99:	4b                   	dec    %ebx
     f9a:	5f                   	pop    %edi
     f9b:	46                   	inc    %esi
     f9c:	52                   	push   %edx
     f9d:	45                   	inc    %ebp
     f9e:	45                   	inc    %ebp
     f9f:	20 32                	and    %dh,(%edx)
     fa1:	00 5f 5f             	add    %bl,0x5f(%edi)
     fa4:	47                   	inc    %edi
     fa5:	4e                   	dec    %esi
     fa6:	55                   	push   %ebp
     fa7:	43                   	inc    %ebx
     fa8:	5f                   	pop    %edi
     fa9:	5f                   	pop    %edi
     faa:	20 31                	and    %dh,(%ecx)
     fac:	31 00                	xor    %eax,(%eax)
     fae:	5f                   	pop    %edi
     faf:	5f                   	pop    %edi
     fb0:	4c                   	dec    %esp
     fb1:	44                   	inc    %esp
     fb2:	42                   	inc    %edx
     fb3:	4c                   	dec    %esp
     fb4:	5f                   	pop    %edi
     fb5:	4d                   	dec    %ebp
     fb6:	49                   	dec    %ecx
     fb7:	4e                   	dec    %esi
     fb8:	5f                   	pop    %edi
     fb9:	45                   	inc    %ebp
     fba:	58                   	pop    %eax
     fbb:	50                   	push   %eax
     fbc:	5f                   	pop    %edi
     fbd:	5f                   	pop    %edi
     fbe:	20 28                	and    %ch,(%eax)
     fc0:	2d 31 36 33 38       	sub    $0x38333631,%eax
     fc5:	31 29                	xor    %ebp,(%ecx)
     fc7:	00 5f 5f             	add    %bl,0x5f(%edi)
     fca:	49                   	dec    %ecx
     fcb:	4e                   	dec    %esi
     fcc:	54                   	push   %esp
     fcd:	5f                   	pop    %edi
     fce:	46                   	inc    %esi
     fcf:	41                   	inc    %ecx
     fd0:	53                   	push   %ebx
     fd1:	54                   	push   %esp
     fd2:	31 36                	xor    %esi,(%esi)
     fd4:	5f                   	pop    %edi
     fd5:	57                   	push   %edi
     fd6:	49                   	dec    %ecx
     fd7:	44                   	inc    %esp
     fd8:	54                   	push   %esp
     fd9:	48                   	dec    %eax
     fda:	5f                   	pop    %edi
     fdb:	5f                   	pop    %edi
     fdc:	20 33                	and    %dh,(%ebx)
     fde:	32 00                	xor    (%eax),%al
     fe0:	5f                   	pop    %edi
     fe1:	5f                   	pop    %edi
     fe2:	46                   	inc    %esi
     fe3:	4c                   	dec    %esp
     fe4:	54                   	push   %esp
     fe5:	33 32                	xor    (%edx),%esi
     fe7:	5f                   	pop    %edi
     fe8:	4d                   	dec    %ebp
     fe9:	41                   	inc    %ecx
     fea:	4e                   	dec    %esi
     feb:	54                   	push   %esp
     fec:	5f                   	pop    %edi
     fed:	44                   	inc    %esp
     fee:	49                   	dec    %ecx
     fef:	47                   	inc    %edi
     ff0:	5f                   	pop    %edi
     ff1:	5f                   	pop    %edi
     ff2:	20 32                	and    %dh,(%edx)
     ff4:	34 00                	xor    $0x0,%al
     ff6:	5f                   	pop    %edi
     ff7:	5f                   	pop    %edi
     ff8:	47                   	inc    %edi
     ff9:	43                   	inc    %ebx
     ffa:	43                   	inc    %ebx
     ffb:	5f                   	pop    %edi
     ffc:	49                   	dec    %ecx
     ffd:	45                   	inc    %ebp
     ffe:	43                   	inc    %ebx
     fff:	5f                   	pop    %edi
    1000:	35 35 39 5f 43       	xor    $0x435f3935,%eax
    1005:	4f                   	dec    %edi
    1006:	4d                   	dec    %ebp
    1007:	50                   	push   %eax
    1008:	4c                   	dec    %esp
    1009:	45                   	inc    %ebp
    100a:	58                   	pop    %eax
    100b:	20 32                	and    %dh,(%edx)
    100d:	00 5f 5f             	add    %bl,0x5f(%edi)
    1010:	46                   	inc    %esi
    1011:	4c                   	dec    %esp
    1012:	54                   	push   %esp
    1013:	5f                   	pop    %edi
    1014:	48                   	dec    %eax
    1015:	41                   	inc    %ecx
    1016:	53                   	push   %ebx
    1017:	5f                   	pop    %edi
    1018:	51                   	push   %ecx
    1019:	55                   	push   %ebp
    101a:	49                   	dec    %ecx
    101b:	45                   	inc    %ebp
    101c:	54                   	push   %esp
    101d:	5f                   	pop    %edi
    101e:	4e                   	dec    %esi
    101f:	41                   	inc    %ecx
    1020:	4e                   	dec    %esi
    1021:	5f                   	pop    %edi
    1022:	5f                   	pop    %edi
    1023:	20 31                	and    %dh,(%ecx)
    1025:	00 5f 5f             	add    %bl,0x5f(%edi)
    1028:	53                   	push   %ebx
    1029:	49                   	dec    %ecx
    102a:	5a                   	pop    %edx
    102b:	45                   	inc    %ebp
    102c:	4f                   	dec    %edi
    102d:	46                   	inc    %esi
    102e:	5f                   	pop    %edi
    102f:	4c                   	dec    %esp
    1030:	4f                   	dec    %edi
    1031:	4e                   	dec    %esi
    1032:	47                   	inc    %edi
    1033:	5f                   	pop    %edi
    1034:	5f                   	pop    %edi
    1035:	20 34 00             	and    %dh,(%eax,%eax,1)
    1038:	5f                   	pop    %edi
    1039:	5f                   	pop    %edi
    103a:	53                   	push   %ebx
    103b:	54                   	push   %esp
    103c:	44                   	inc    %esp
    103d:	43                   	inc    %ebx
    103e:	5f                   	pop    %edi
    103f:	48                   	dec    %eax
    1040:	4f                   	dec    %edi
    1041:	53                   	push   %ebx
    1042:	54                   	push   %esp
    1043:	45                   	inc    %ebp
    1044:	44                   	inc    %esp
    1045:	5f                   	pop    %edi
    1046:	5f                   	pop    %edi
    1047:	20 30                	and    %dh,(%eax)
    1049:	00 5f 5f             	add    %bl,0x5f(%edi)
    104c:	46                   	inc    %esi
    104d:	4c                   	dec    %esp
    104e:	54                   	push   %esp
    104f:	5f                   	pop    %edi
    1050:	4d                   	dec    %ebp
    1051:	49                   	dec    %ecx
    1052:	4e                   	dec    %esi
    1053:	5f                   	pop    %edi
    1054:	45                   	inc    %ebp
    1055:	58                   	pop    %eax
    1056:	50                   	push   %eax
    1057:	5f                   	pop    %edi
    1058:	5f                   	pop    %edi
    1059:	20 28                	and    %ch,(%eax)
    105b:	2d 31 32 35 29       	sub    $0x29353231,%eax
    1060:	00 5f 5f             	add    %bl,0x5f(%edi)
    1063:	6c                   	insb   (%dx),%es:(%edi)
    1064:	69 6e 75 78 5f 5f 20 	imul   $0x205f5f78,0x75(%esi),%ebp
    106b:	31 00                	xor    %eax,(%eax)
    106d:	5f                   	pop    %edi
    106e:	5f                   	pop    %edi
    106f:	46                   	inc    %esi
    1070:	4c                   	dec    %esp
    1071:	54                   	push   %esp
    1072:	33 32                	xor    (%edx),%esi
    1074:	58                   	pop    %eax
    1075:	5f                   	pop    %edi
    1076:	4d                   	dec    %ebp
    1077:	49                   	dec    %ecx
    1078:	4e                   	dec    %esi
    1079:	5f                   	pop    %edi
    107a:	5f                   	pop    %edi
    107b:	20 32                	and    %dh,(%edx)
    107d:	2e 32 32             	xor    %cs:(%edx),%dh
    1080:	35 30 37 33 38       	xor    $0x38333730,%eax
    1085:	35 38 35 30 37       	xor    $0x37303538,%eax
    108a:	32 30                	xor    (%eax),%dh
    108c:	31 33                	xor    %esi,(%ebx)
    108e:	38 33                	cmp    %dh,(%ebx)
    1090:	30 39                	xor    %bh,(%ecx)
    1092:	30 32                	xor    %dh,(%edx)
    1094:	33 32                	xor    (%edx),%esi
    1096:	37                   	aaa    
    1097:	31 37                	xor    %esi,(%edi)
    1099:	33 33                	xor    (%ebx),%esi
    109b:	32 34 30             	xor    (%eax,%esi,1),%dh
    109e:	34 30                	xor    $0x30,%al
    10a0:	36 65 2d 33 30 38 46 	ss gs sub $0x46383033,%eax
    10a7:	33 32                	xor    (%edx),%esi
    10a9:	78 00                	js     10ab <_GLOBAL_OFFSET_TABLE_+0xb97>
    10ab:	5f                   	pop    %edi
    10ac:	5f                   	pop    %edi
    10ad:	46                   	inc    %esi
    10ae:	4c                   	dec    %esp
    10af:	54                   	push   %esp
    10b0:	33 32                	xor    (%edx),%esi
    10b2:	58                   	pop    %eax
    10b3:	5f                   	pop    %edi
    10b4:	48                   	dec    %eax
    10b5:	41                   	inc    %ecx
    10b6:	53                   	push   %ebx
    10b7:	5f                   	pop    %edi
    10b8:	51                   	push   %ecx
    10b9:	55                   	push   %ebp
    10ba:	49                   	dec    %ecx
    10bb:	45                   	inc    %ebp
    10bc:	54                   	push   %esp
    10bd:	5f                   	pop    %edi
    10be:	4e                   	dec    %esi
    10bf:	41                   	inc    %ecx
    10c0:	4e                   	dec    %esi
    10c1:	5f                   	pop    %edi
    10c2:	5f                   	pop    %edi
    10c3:	20 31                	and    %dh,(%ecx)
    10c5:	00 5f 5f             	add    %bl,0x5f(%edi)
    10c8:	53                   	push   %ebx
    10c9:	49                   	dec    %ecx
    10ca:	5a                   	pop    %edx
    10cb:	45                   	inc    %ebp
    10cc:	4f                   	dec    %edi
    10cd:	46                   	inc    %esi
    10ce:	5f                   	pop    %edi
    10cf:	4c                   	dec    %esp
    10d0:	4f                   	dec    %edi
    10d1:	4e                   	dec    %esi
    10d2:	47                   	inc    %edi
    10d3:	5f                   	pop    %edi
    10d4:	44                   	inc    %esp
    10d5:	4f                   	dec    %edi
    10d6:	55                   	push   %ebp
    10d7:	42                   	inc    %edx
    10d8:	4c                   	dec    %esp
    10d9:	45                   	inc    %ebp
    10da:	5f                   	pop    %edi
    10db:	5f                   	pop    %edi
    10dc:	20 31                	and    %dh,(%ecx)
    10de:	32 00                	xor    (%eax),%al
    10e0:	5f                   	pop    %edi
    10e1:	5f                   	pop    %edi
    10e2:	4f                   	dec    %edi
    10e3:	52                   	push   %edx
    10e4:	44                   	inc    %esp
    10e5:	45                   	inc    %ebp
    10e6:	52                   	push   %edx
    10e7:	5f                   	pop    %edi
    10e8:	42                   	inc    %edx
    10e9:	49                   	dec    %ecx
    10ea:	47                   	inc    %edi
    10eb:	5f                   	pop    %edi
    10ec:	45                   	inc    %ebp
    10ed:	4e                   	dec    %esi
    10ee:	44                   	inc    %esp
    10ef:	49                   	dec    %ecx
    10f0:	41                   	inc    %ecx
    10f1:	4e                   	dec    %esi
    10f2:	5f                   	pop    %edi
    10f3:	5f                   	pop    %edi
    10f4:	20 34 33             	and    %dh,(%ebx,%esi,1)
    10f7:	32 31                	xor    (%ecx),%dh
    10f9:	00 5f 5f             	add    %bl,0x5f(%edi)
    10fc:	43                   	inc    %ebx
    10fd:	48                   	dec    %eax
    10fe:	41                   	inc    %ecx
    10ff:	52                   	push   %edx
    1100:	31 36                	xor    %esi,(%esi)
    1102:	5f                   	pop    %edi
    1103:	54                   	push   %esp
    1104:	59                   	pop    %ecx
    1105:	50                   	push   %eax
    1106:	45                   	inc    %ebp
    1107:	5f                   	pop    %edi
    1108:	5f                   	pop    %edi
    1109:	20 73 68             	and    %dh,0x68(%ebx)
    110c:	6f                   	outsl  %ds:(%esi),(%dx)
    110d:	72 74                	jb     1183 <_GLOBAL_OFFSET_TABLE_+0xc6f>
    110f:	20 75 6e             	and    %dh,0x6e(%ebp)
    1112:	73 69                	jae    117d <_GLOBAL_OFFSET_TABLE_+0xc69>
    1114:	67 6e                	outsb  %ds:(%si),(%dx)
    1116:	65 64 20 69 6e       	gs and %ch,%fs:0x6e(%ecx)
    111b:	74 00                	je     111d <_GLOBAL_OFFSET_TABLE_+0xc09>
    111d:	5f                   	pop    %edi
    111e:	5f                   	pop    %edi
    111f:	4c                   	dec    %esp
    1120:	44                   	inc    %esp
    1121:	42                   	inc    %edx
    1122:	4c                   	dec    %esp
    1123:	5f                   	pop    %edi
    1124:	4d                   	dec    %ebp
    1125:	49                   	dec    %ecx
    1126:	4e                   	dec    %esi
    1127:	5f                   	pop    %edi
    1128:	31 30                	xor    %esi,(%eax)
    112a:	5f                   	pop    %edi
    112b:	45                   	inc    %ebp
    112c:	58                   	pop    %eax
    112d:	50                   	push   %eax
    112e:	5f                   	pop    %edi
    112f:	5f                   	pop    %edi
    1130:	20 28                	and    %ch,(%eax)
    1132:	2d 34 39 33 31       	sub    $0x31333934,%eax
    1137:	29 00                	sub    %eax,(%eax)
    1139:	5f                   	pop    %edi
    113a:	5f                   	pop    %edi
    113b:	70 69                	jo     11a6 <_GLOBAL_OFFSET_TABLE_+0xc92>
    113d:	63 5f 5f             	arpl   %bx,0x5f(%edi)
    1140:	20 32                	and    %dh,(%edx)
    1142:	00 5f 5f             	add    %bl,0x5f(%edi)
    1145:	46                   	inc    %esi
    1146:	4c                   	dec    %esp
    1147:	54                   	push   %esp
    1148:	36 34 58             	ss xor $0x58,%al
    114b:	5f                   	pop    %edi
    114c:	44                   	inc    %esp
    114d:	45                   	inc    %ebp
    114e:	4e                   	dec    %esi
    114f:	4f                   	dec    %edi
    1150:	52                   	push   %edx
    1151:	4d                   	dec    %ebp
    1152:	5f                   	pop    %edi
    1153:	4d                   	dec    %ebp
    1154:	49                   	dec    %ecx
    1155:	4e                   	dec    %esi
    1156:	5f                   	pop    %edi
    1157:	5f                   	pop    %edi
    1158:	20 33                	and    %dh,(%ebx)
    115a:	2e 36 34 35          	cs ss xor $0x35,%al
    115e:	31 39                	xor    %edi,(%ecx)
    1160:	39 35 33 31 38 38    	cmp    %esi,0x38383133
    1166:	32 34 37             	xor    (%edi,%esi,1),%dh
    1169:	34 36                	xor    $0x36,%al
    116b:	30 32                	xor    %dh,(%edx)
    116d:	35 32 38 34 30       	xor    $0x30343832,%eax
    1172:	35 39 33 33 36       	xor    $0x36333339,%eax
    1177:	31 39                	xor    %edi,(%ecx)
    1179:	34 31                	xor    $0x31,%al
    117b:	39 38                	cmp    %edi,(%eax)
    117d:	32 65 2d             	xor    0x2d(%ebp),%ah
    1180:	34 39                	xor    $0x39,%al
    1182:	35 31 46 36 34       	xor    $0x34364631,%eax
    1187:	78 00                	js     1189 <_GLOBAL_OFFSET_TABLE_+0xc75>
    1189:	5f                   	pop    %edi
    118a:	5f                   	pop    %edi
    118b:	49                   	dec    %ecx
    118c:	4e                   	dec    %esi
    118d:	54                   	push   %esp
    118e:	4d                   	dec    %ebp
    118f:	41                   	inc    %ecx
    1190:	58                   	pop    %eax
    1191:	5f                   	pop    %edi
    1192:	54                   	push   %esp
    1193:	59                   	pop    %ecx
    1194:	50                   	push   %eax
    1195:	45                   	inc    %ebp
    1196:	5f                   	pop    %edi
    1197:	5f                   	pop    %edi
    1198:	20 6c 6f 6e          	and    %ch,0x6e(%edi,%ebp,2)
    119c:	67 20 6c 6f          	and    %ch,0x6f(%si)
    11a0:	6e                   	outsb  %ds:(%esi),(%dx)
    11a1:	67 20 69 6e          	and    %ch,0x6e(%bx,%di)
    11a5:	74 00                	je     11a7 <_GLOBAL_OFFSET_TABLE_+0xc93>
    11a7:	5f                   	pop    %edi
    11a8:	5f                   	pop    %edi
    11a9:	4c                   	dec    %esp
    11aa:	44                   	inc    %esp
    11ab:	42                   	inc    %edx
    11ac:	4c                   	dec    %esp
    11ad:	5f                   	pop    %edi
    11ae:	4d                   	dec    %ebp
    11af:	41                   	inc    %ecx
    11b0:	58                   	pop    %eax
    11b1:	5f                   	pop    %edi
    11b2:	5f                   	pop    %edi
    11b3:	20 31                	and    %dh,(%ecx)
    11b5:	2e 31 38             	xor    %edi,%cs:(%eax)
    11b8:	39 37                	cmp    %esi,(%edi)
    11ba:	33 31                	xor    (%ecx),%esi
    11bc:	34 39                	xor    $0x39,%al
    11be:	35 33 35 37 32       	xor    $0x32373533,%eax
    11c3:	33 31                	xor    (%ecx),%esi
    11c5:	37                   	aaa    
    11c6:	36 35 30 32 31 32    	ss xor $0x32313230,%eax
    11cc:	36 33 38             	xor    %ss:(%eax),%edi
    11cf:	35 33 30 33 30       	xor    $0x30333033,%eax
    11d4:	39 37                	cmp    %esi,(%edi)
    11d6:	30 32                	xor    %dh,(%edx)
    11d8:	31 65 2b             	xor    %esp,0x2b(%ebp)
    11db:	34 39                	xor    $0x39,%al
    11dd:	33 32                	xor    (%edx),%esi
    11df:	4c                   	dec    %esp
    11e0:	00 5f 5f             	add    %bl,0x5f(%edi)
    11e3:	53                   	push   %ebx
    11e4:	49                   	dec    %ecx
    11e5:	5a                   	pop    %edx
    11e6:	45                   	inc    %ebp
    11e7:	4f                   	dec    %edi
    11e8:	46                   	inc    %esi
    11e9:	5f                   	pop    %edi
    11ea:	53                   	push   %ebx
    11eb:	48                   	dec    %eax
    11ec:	4f                   	dec    %edi
    11ed:	52                   	push   %edx
    11ee:	54                   	push   %esp
    11ef:	5f                   	pop    %edi
    11f0:	5f                   	pop    %edi
    11f1:	20 32                	and    %dh,(%edx)
    11f3:	00 5f 5f             	add    %bl,0x5f(%edi)
    11f6:	46                   	inc    %esi
    11f7:	4c                   	dec    %esp
    11f8:	54                   	push   %esp
    11f9:	5f                   	pop    %edi
    11fa:	4d                   	dec    %ebp
    11fb:	49                   	dec    %ecx
    11fc:	4e                   	dec    %esi
    11fd:	5f                   	pop    %edi
    11fe:	5f                   	pop    %edi
    11ff:	20 31                	and    %dh,(%ecx)
    1201:	2e 31 37             	xor    %esi,%cs:(%edi)
    1204:	35 34 39 34 33       	xor    $0x33343934,%eax
    1209:	35 30 38 32 32       	xor    $0x32323830,%eax
    120e:	32 38                	xor    (%eax),%bh
    1210:	37                   	aaa    
    1211:	35 30 37 39 36       	xor    $0x36393730,%eax
    1216:	38 37                	cmp    %dh,(%edi)
    1218:	33 36                	xor    (%esi),%esi
    121a:	35 33 37 32 32       	xor    $0x32323733,%eax
    121f:	32 32                	xor    (%edx),%dh
    1221:	34 35                	xor    $0x35,%al
    1223:	36 38 65 2d          	cmp    %ah,%ss:0x2d(%ebp)
    1227:	33 38                	xor    (%eax),%edi
    1229:	46                   	inc    %esi
    122a:	00 5f 5f             	add    %bl,0x5f(%edi)
    122d:	47                   	inc    %edi
    122e:	43                   	inc    %ebx
    122f:	43                   	inc    %ebx
    1230:	5f                   	pop    %edi
    1231:	41                   	inc    %ecx
    1232:	54                   	push   %esp
    1233:	4f                   	dec    %edi
    1234:	4d                   	dec    %ebp
    1235:	49                   	dec    %ecx
    1236:	43                   	inc    %ebx
    1237:	5f                   	pop    %edi
    1238:	49                   	dec    %ecx
    1239:	4e                   	dec    %esi
    123a:	54                   	push   %esp
    123b:	5f                   	pop    %edi
    123c:	4c                   	dec    %esp
    123d:	4f                   	dec    %edi
    123e:	43                   	inc    %ebx
    123f:	4b                   	dec    %ebx
    1240:	5f                   	pop    %edi
    1241:	46                   	inc    %esi
    1242:	52                   	push   %edx
    1243:	45                   	inc    %ebp
    1244:	45                   	inc    %ebp
    1245:	20 32                	and    %dh,(%edx)
    1247:	00 5f 5f             	add    %bl,0x5f(%edi)
    124a:	46                   	inc    %esi
    124b:	4c                   	dec    %esp
    124c:	54                   	push   %esp
    124d:	36 34 5f             	ss xor $0x5f,%al
    1250:	48                   	dec    %eax
    1251:	41                   	inc    %ecx
    1252:	53                   	push   %ebx
    1253:	5f                   	pop    %edi
    1254:	49                   	dec    %ecx
    1255:	4e                   	dec    %esi
    1256:	46                   	inc    %esi
    1257:	49                   	dec    %ecx
    1258:	4e                   	dec    %esi
    1259:	49                   	dec    %ecx
    125a:	54                   	push   %esp
    125b:	59                   	pop    %ecx
    125c:	5f                   	pop    %edi
    125d:	5f                   	pop    %edi
    125e:	20 31                	and    %dh,(%ecx)
    1260:	00 5f 5f             	add    %bl,0x5f(%edi)
    1263:	49                   	dec    %ecx
    1264:	4e                   	dec    %esi
    1265:	54                   	push   %esp
    1266:	31 36                	xor    %esi,(%esi)
    1268:	5f                   	pop    %edi
    1269:	43                   	inc    %ebx
    126a:	28 63 29             	sub    %ah,0x29(%ebx)
    126d:	20 63 00             	and    %ah,0x0(%ebx)
    1270:	5f                   	pop    %edi
    1271:	5f                   	pop    %edi
    1272:	46                   	inc    %esi
    1273:	4c                   	dec    %esp
    1274:	54                   	push   %esp
    1275:	36 34 58             	ss xor $0x58,%al
    1278:	5f                   	pop    %edi
    1279:	48                   	dec    %eax
    127a:	41                   	inc    %ecx
    127b:	53                   	push   %ebx
    127c:	5f                   	pop    %edi
    127d:	49                   	dec    %ecx
    127e:	4e                   	dec    %esi
    127f:	46                   	inc    %esi
    1280:	49                   	dec    %ecx
    1281:	4e                   	dec    %esi
    1282:	49                   	dec    %ecx
    1283:	54                   	push   %esp
    1284:	59                   	pop    %ecx
    1285:	5f                   	pop    %edi
    1286:	5f                   	pop    %edi
    1287:	20 31                	and    %dh,(%ecx)
    1289:	00 5f 5f             	add    %bl,0x5f(%edi)
    128c:	46                   	inc    %esi
    128d:	4c                   	dec    %esp
    128e:	54                   	push   %esp
    128f:	5f                   	pop    %edi
    1290:	4d                   	dec    %ebp
    1291:	41                   	inc    %ecx
    1292:	58                   	pop    %eax
    1293:	5f                   	pop    %edi
    1294:	45                   	inc    %ebp
    1295:	58                   	pop    %eax
    1296:	50                   	push   %eax
    1297:	5f                   	pop    %edi
    1298:	5f                   	pop    %edi
    1299:	20 31                	and    %dh,(%ecx)
    129b:	32 38                	xor    (%eax),%bh
    129d:	00 5f 5f             	add    %bl,0x5f(%edi)
    12a0:	44                   	inc    %esp
    12a1:	42                   	inc    %edx
    12a2:	4c                   	dec    %esp
    12a3:	5f                   	pop    %edi
    12a4:	48                   	dec    %eax
    12a5:	41                   	inc    %ecx
    12a6:	53                   	push   %ebx
    12a7:	5f                   	pop    %edi
    12a8:	44                   	inc    %esp
    12a9:	45                   	inc    %ebp
    12aa:	4e                   	dec    %esi
    12ab:	4f                   	dec    %edi
    12ac:	52                   	push   %edx
    12ad:	4d                   	dec    %ebp
    12ae:	5f                   	pop    %edi
    12af:	5f                   	pop    %edi
    12b0:	20 31                	and    %dh,(%ecx)
    12b2:	00 5f 5f             	add    %bl,0x5f(%edi)
    12b5:	46                   	inc    %esi
    12b6:	4c                   	dec    %esp
    12b7:	54                   	push   %esp
    12b8:	31 32                	xor    %esi,(%edx)
    12ba:	38 5f 4d             	cmp    %bl,0x4d(%edi)
    12bd:	49                   	dec    %ecx
    12be:	4e                   	dec    %esi
    12bf:	5f                   	pop    %edi
    12c0:	31 30                	xor    %esi,(%eax)
    12c2:	5f                   	pop    %edi
    12c3:	45                   	inc    %ebp
    12c4:	58                   	pop    %eax
    12c5:	50                   	push   %eax
    12c6:	5f                   	pop    %edi
    12c7:	5f                   	pop    %edi
    12c8:	20 28                	and    %ch,(%eax)
    12ca:	2d 34 39 33 31       	sub    $0x31333934,%eax
    12cf:	29 00                	sub    %eax,(%eax)
    12d1:	5f                   	pop    %edi
    12d2:	5f                   	pop    %edi
    12d3:	49                   	dec    %ecx
    12d4:	4e                   	dec    %esi
    12d5:	54                   	push   %esp
    12d6:	5f                   	pop    %edi
    12d7:	4d                   	dec    %ebp
    12d8:	41                   	inc    %ecx
    12d9:	58                   	pop    %eax
    12da:	5f                   	pop    %edi
    12db:	5f                   	pop    %edi
    12dc:	20 30                	and    %dh,(%eax)
    12de:	78 37                	js     1317 <_GLOBAL_OFFSET_TABLE_+0xe03>
    12e0:	66 66 66 66 66 66 66 	data16 data16 data16 data16 data16 data16 data16 add %bl,0x5f(%edi)
    12e7:	00 5f 5f 
    12ea:	46                   	inc    %esi
    12eb:	4c                   	dec    %esp
    12ec:	54                   	push   %esp
    12ed:	31 32                	xor    %esi,(%edx)
    12ef:	38 5f 48             	cmp    %bl,0x48(%edi)
    12f2:	41                   	inc    %ecx
    12f3:	53                   	push   %ebx
    12f4:	5f                   	pop    %edi
    12f5:	44                   	inc    %esp
    12f6:	45                   	inc    %ebp
    12f7:	4e                   	dec    %esi
    12f8:	4f                   	dec    %edi
    12f9:	52                   	push   %edx
    12fa:	4d                   	dec    %ebp
    12fb:	5f                   	pop    %edi
    12fc:	5f                   	pop    %edi
    12fd:	20 31                	and    %dh,(%ecx)
    12ff:	00 5f 5f             	add    %bl,0x5f(%edi)
    1302:	47                   	inc    %edi
    1303:	43                   	inc    %ebx
    1304:	43                   	inc    %ebx
    1305:	5f                   	pop    %edi
    1306:	41                   	inc    %ecx
    1307:	54                   	push   %esp
    1308:	4f                   	dec    %edi
    1309:	4d                   	dec    %ebp
    130a:	49                   	dec    %ecx
    130b:	43                   	inc    %ebx
    130c:	5f                   	pop    %edi
    130d:	4c                   	dec    %esp
    130e:	4c                   	dec    %esp
    130f:	4f                   	dec    %edi
    1310:	4e                   	dec    %esi
    1311:	47                   	inc    %edi
    1312:	5f                   	pop    %edi
    1313:	4c                   	dec    %esp
    1314:	4f                   	dec    %edi
    1315:	43                   	inc    %ebx
    1316:	4b                   	dec    %ebx
    1317:	5f                   	pop    %edi
    1318:	46                   	inc    %esi
    1319:	52                   	push   %edx
    131a:	45                   	inc    %ebp
    131b:	45                   	inc    %ebp
    131c:	20 32                	and    %dh,(%edx)
    131e:	00 5f 5f             	add    %bl,0x5f(%edi)
    1321:	46                   	inc    %esi
    1322:	4c                   	dec    %esp
    1323:	54                   	push   %esp
    1324:	31 32                	xor    %esi,(%edx)
    1326:	38 5f 4d             	cmp    %bl,0x4d(%edi)
    1329:	49                   	dec    %ecx
    132a:	4e                   	dec    %esi
    132b:	5f                   	pop    %edi
    132c:	5f                   	pop    %edi
    132d:	20 33                	and    %dh,(%ebx)
    132f:	2e 33 36             	xor    %cs:(%esi),%esi
    1332:	32 31                	xor    (%ecx),%dh
    1334:	30 33                	xor    %dh,(%ebx)
    1336:	31 34 33             	xor    %esi,(%ebx,%esi,1)
    1339:	31 31                	xor    %esi,(%ecx)
    133b:	32 30                	xor    (%eax),%dh
    133d:	39 33                	cmp    %esi,(%ebx)
    133f:	35 30 36 32 36       	xor    $0x36323630,%eax
    1344:	32 36                	xor    (%esi),%dh
    1346:	37                   	aaa    
    1347:	37                   	aaa    
    1348:	38 31                	cmp    %dh,(%ecx)
    134a:	37                   	aaa    
    134b:	33 32                	xor    (%edx),%esi
    134d:	31 37                	xor    %esi,(%edi)
    134f:	35 32 36 30 65       	xor    $0x65303632,%eax
    1354:	2d 34 39 33 32       	sub    $0x32333934,%eax
    1359:	46                   	inc    %esi
    135a:	31 32                	xor    %esi,(%edx)
    135c:	38 00                	cmp    %al,(%eax)
    135e:	5f                   	pop    %edi
    135f:	5f                   	pop    %edi
    1360:	47                   	inc    %edi
    1361:	4e                   	dec    %esi
    1362:	55                   	push   %ebp
    1363:	43                   	inc    %ebx
    1364:	5f                   	pop    %edi
    1365:	50                   	push   %eax
    1366:	41                   	inc    %ecx
    1367:	54                   	push   %esp
    1368:	43                   	inc    %ebx
    1369:	48                   	dec    %eax
    136a:	4c                   	dec    %esp
    136b:	45                   	inc    %ebp
    136c:	56                   	push   %esi
    136d:	45                   	inc    %ebp
    136e:	4c                   	dec    %esp
    136f:	5f                   	pop    %edi
    1370:	5f                   	pop    %edi
    1371:	20 30                	and    %dh,(%eax)
    1373:	00 2f                	add    %ch,(%edi)
    1375:	68 6f 6d 65 2f       	push   $0x2f656d6f
    137a:	74 6f                	je     13eb <_GLOBAL_OFFSET_TABLE_+0xed7>
    137c:	6d                   	insl   (%dx),%es:(%edi)
    137d:	2f                   	das    
    137e:	44                   	inc    %esp
    137f:	65 73 6b             	gs jae 13ed <_GLOBAL_OFFSET_TABLE_+0xed9>
    1382:	74 6f                	je     13f3 <_GLOBAL_OFFSET_TABLE_+0xedf>
    1384:	70 2f                	jo     13b5 <_GLOBAL_OFFSET_TABLE_+0xea1>
    1386:	6f                   	outsl  %ds:(%esi),(%dx)
    1387:	73 2f                	jae    13b8 <_GLOBAL_OFFSET_TABLE_+0xea4>
    1389:	63 6f 6d             	arpl   %bp,0x6d(%edi)
    138c:	2f                   	das    
    138d:	6f                   	outsl  %ds:(%esi),(%dx)
    138e:	73 00                	jae    1390 <_GLOBAL_OFFSET_TABLE_+0xe7c>
    1390:	5f                   	pop    %edi
    1391:	5f                   	pop    %edi
    1392:	44                   	inc    %esp
    1393:	42                   	inc    %edx
    1394:	4c                   	dec    %esp
    1395:	5f                   	pop    %edi
    1396:	44                   	inc    %esp
    1397:	45                   	inc    %ebp
    1398:	43                   	inc    %ebx
    1399:	49                   	dec    %ecx
    139a:	4d                   	dec    %ebp
    139b:	41                   	inc    %ecx
    139c:	4c                   	dec    %esp
    139d:	5f                   	pop    %edi
    139e:	44                   	inc    %esp
    139f:	49                   	dec    %ecx
    13a0:	47                   	inc    %edi
    13a1:	5f                   	pop    %edi
    13a2:	5f                   	pop    %edi
    13a3:	20 31                	and    %dh,(%ecx)
    13a5:	37                   	aaa    
    13a6:	00 5f 5f             	add    %bl,0x5f(%edi)
    13a9:	44                   	inc    %esp
    13aa:	42                   	inc    %edx
    13ab:	4c                   	dec    %esp
    13ac:	5f                   	pop    %edi
    13ad:	44                   	inc    %esp
    13ae:	49                   	dec    %ecx
    13af:	47                   	inc    %edi
    13b0:	5f                   	pop    %edi
    13b1:	5f                   	pop    %edi
    13b2:	20 31                	and    %dh,(%ecx)
    13b4:	35 00 5f 5f 46       	xor    $0x465f5f00,%eax
    13b9:	4c                   	dec    %esp
    13ba:	54                   	push   %esp
    13bb:	5f                   	pop    %edi
    13bc:	44                   	inc    %esp
    13bd:	45                   	inc    %ebp
    13be:	43                   	inc    %ebx
    13bf:	49                   	dec    %ecx
    13c0:	4d                   	dec    %ebp
    13c1:	41                   	inc    %ecx
    13c2:	4c                   	dec    %esp
    13c3:	5f                   	pop    %edi
    13c4:	44                   	inc    %esp
    13c5:	49                   	dec    %ecx
    13c6:	47                   	inc    %edi
    13c7:	5f                   	pop    %edi
    13c8:	5f                   	pop    %edi
    13c9:	20 39                	and    %bh,(%ecx)
    13cb:	00 5f 5f             	add    %bl,0x5f(%edi)
    13ce:	49                   	dec    %ecx
    13cf:	4e                   	dec    %esi
    13d0:	54                   	push   %esp
    13d1:	5f                   	pop    %edi
    13d2:	46                   	inc    %esi
    13d3:	41                   	inc    %ecx
    13d4:	53                   	push   %ebx
    13d5:	54                   	push   %esp
    13d6:	36 34 5f             	ss xor $0x5f,%al
    13d9:	54                   	push   %esp
    13da:	59                   	pop    %ecx
    13db:	50                   	push   %eax
    13dc:	45                   	inc    %ebp
    13dd:	5f                   	pop    %edi
    13de:	5f                   	pop    %edi
    13df:	20 6c 6f 6e          	and    %ch,0x6e(%edi,%ebp,2)
    13e3:	67 20 6c 6f          	and    %ch,0x6f(%si)
    13e7:	6e                   	outsb  %ds:(%esi),(%dx)
    13e8:	67 20 69 6e          	and    %ch,0x6e(%bx,%di)
    13ec:	74 00                	je     13ee <_GLOBAL_OFFSET_TABLE_+0xeda>
    13ee:	5f                   	pop    %edi
    13ef:	5f                   	pop    %edi
    13f0:	44                   	inc    %esp
    13f1:	45                   	inc    %ebp
    13f2:	43                   	inc    %ebx
    13f3:	31 32                	xor    %esi,(%edx)
    13f5:	38 5f 4d             	cmp    %bl,0x4d(%edi)
    13f8:	49                   	dec    %ecx
    13f9:	4e                   	dec    %esi
    13fa:	5f                   	pop    %edi
    13fb:	5f                   	pop    %edi
    13fc:	20 31                	and    %dh,(%ecx)
    13fe:	45                   	inc    %ebp
    13ff:	2d 36 31 34 33       	sub    $0x33343136,%eax
    1404:	44                   	inc    %esp
    1405:	4c                   	dec    %esp
    1406:	00 5f 5f             	add    %bl,0x5f(%edi)
    1409:	42                   	inc    %edx
    140a:	49                   	dec    %ecx
    140b:	47                   	inc    %edi
    140c:	47                   	inc    %edi
    140d:	45                   	inc    %ebp
    140e:	53                   	push   %ebx
    140f:	54                   	push   %esp
    1410:	5f                   	pop    %edi
    1411:	41                   	inc    %ecx
    1412:	4c                   	dec    %esp
    1413:	49                   	dec    %ecx
    1414:	47                   	inc    %edi
    1415:	4e                   	dec    %esi
    1416:	4d                   	dec    %ebp
    1417:	45                   	inc    %ebp
    1418:	4e                   	dec    %esi
    1419:	54                   	push   %esp
    141a:	5f                   	pop    %edi
    141b:	5f                   	pop    %edi
    141c:	20 31                	and    %dh,(%ecx)
    141e:	36 00 5f 5f          	add    %bl,%ss:0x5f(%edi)
    1422:	53                   	push   %ebx
    1423:	49                   	dec    %ecx
    1424:	5a                   	pop    %edx
    1425:	45                   	inc    %ebp
    1426:	4f                   	dec    %edi
    1427:	46                   	inc    %esi
    1428:	5f                   	pop    %edi
    1429:	49                   	dec    %ecx
    142a:	4e                   	dec    %esi
    142b:	54                   	push   %esp
    142c:	5f                   	pop    %edi
    142d:	5f                   	pop    %edi
    142e:	20 34 00             	and    %dh,(%eax,%eax,1)
    1431:	5f                   	pop    %edi
    1432:	5f                   	pop    %edi
    1433:	49                   	dec    %ecx
    1434:	4e                   	dec    %esi
    1435:	54                   	push   %esp
    1436:	36 34 5f             	ss xor $0x5f,%al
    1439:	54                   	push   %esp
    143a:	59                   	pop    %ecx
    143b:	50                   	push   %eax
    143c:	45                   	inc    %ebp
    143d:	5f                   	pop    %edi
    143e:	5f                   	pop    %edi
    143f:	20 6c 6f 6e          	and    %ch,0x6e(%edi,%ebp,2)
    1443:	67 20 6c 6f          	and    %ch,0x6f(%si)
    1447:	6e                   	outsb  %ds:(%esi),(%dx)
    1448:	67 20 69 6e          	and    %ch,0x6e(%bx,%di)
    144c:	74 00                	je     144e <_GLOBAL_OFFSET_TABLE_+0xf3a>
    144e:	5f                   	pop    %edi
    144f:	5f                   	pop    %edi
    1450:	4c                   	dec    %esp
    1451:	44                   	inc    %esp
    1452:	42                   	inc    %edx
    1453:	4c                   	dec    %esp
    1454:	5f                   	pop    %edi
    1455:	44                   	inc    %esp
    1456:	45                   	inc    %ebp
    1457:	43                   	inc    %ebx
    1458:	49                   	dec    %ecx
    1459:	4d                   	dec    %ebp
    145a:	41                   	inc    %ecx
    145b:	4c                   	dec    %esp
    145c:	5f                   	pop    %edi
    145d:	44                   	inc    %esp
    145e:	49                   	dec    %ecx
    145f:	47                   	inc    %edi
    1460:	5f                   	pop    %edi
    1461:	5f                   	pop    %edi
    1462:	20 32                	and    %dh,(%edx)
    1464:	31 00                	xor    %eax,(%eax)
    1466:	5f                   	pop    %edi
    1467:	5f                   	pop    %edi
    1468:	46                   	inc    %esi
    1469:	4c                   	dec    %esp
    146a:	54                   	push   %esp
    146b:	33 32                	xor    (%edx),%esi
    146d:	58                   	pop    %eax
    146e:	5f                   	pop    %edi
    146f:	4d                   	dec    %ebp
    1470:	49                   	dec    %ecx
    1471:	4e                   	dec    %esi
    1472:	5f                   	pop    %edi
    1473:	45                   	inc    %ebp
    1474:	58                   	pop    %eax
    1475:	50                   	push   %eax
    1476:	5f                   	pop    %edi
    1477:	5f                   	pop    %edi
    1478:	20 28                	and    %ch,(%eax)
    147a:	2d 31 30 32 31       	sub    $0x31323031,%eax
    147f:	29 00                	sub    %eax,(%eax)
    1481:	5f                   	pop    %edi
    1482:	5f                   	pop    %edi
    1483:	49                   	dec    %ecx
    1484:	4e                   	dec    %esi
    1485:	54                   	push   %esp
    1486:	31 36                	xor    %esi,(%esi)
    1488:	5f                   	pop    %edi
    1489:	4d                   	dec    %ebp
    148a:	41                   	inc    %ecx
    148b:	58                   	pop    %eax
    148c:	5f                   	pop    %edi
    148d:	5f                   	pop    %edi
    148e:	20 30                	and    %dh,(%eax)
    1490:	78 37                	js     14c9 <_GLOBAL_OFFSET_TABLE_+0xfb5>
    1492:	66 66 66 00 5f 5f    	data16 data16 data16 add %bl,0x5f(%edi)
    1498:	47                   	inc    %edi
    1499:	43                   	inc    %ebx
    149a:	43                   	inc    %ebx
    149b:	5f                   	pop    %edi
    149c:	48                   	dec    %eax
    149d:	41                   	inc    %ecx
    149e:	56                   	push   %esi
    149f:	45                   	inc    %ebp
    14a0:	5f                   	pop    %edi
    14a1:	53                   	push   %ebx
    14a2:	59                   	pop    %ecx
    14a3:	4e                   	dec    %esi
    14a4:	43                   	inc    %ebx
    14a5:	5f                   	pop    %edi
    14a6:	43                   	inc    %ebx
    14a7:	4f                   	dec    %edi
    14a8:	4d                   	dec    %ebp
    14a9:	50                   	push   %eax
    14aa:	41                   	inc    %ecx
    14ab:	52                   	push   %edx
    14ac:	45                   	inc    %ebp
    14ad:	5f                   	pop    %edi
    14ae:	41                   	inc    %ecx
    14af:	4e                   	dec    %esi
    14b0:	44                   	inc    %esp
    14b1:	5f                   	pop    %edi
    14b2:	53                   	push   %ebx
    14b3:	57                   	push   %edi
    14b4:	41                   	inc    %ecx
    14b5:	50                   	push   %eax
    14b6:	5f                   	pop    %edi
    14b7:	34 20                	xor    $0x20,%al
    14b9:	31 00                	xor    %eax,(%eax)
    14bb:	5f                   	pop    %edi
    14bc:	5f                   	pop    %edi
    14bd:	69 33 38 36 5f 5f    	imul   $0x5f5f3638,(%ebx),%esi
    14c3:	20 31                	and    %dh,(%ecx)
    14c5:	00 5f 5f             	add    %bl,0x5f(%edi)
    14c8:	46                   	inc    %esi
    14c9:	4c                   	dec    %esp
    14ca:	54                   	push   %esp
    14cb:	31 32                	xor    %esi,(%edx)
    14cd:	38 5f 48             	cmp    %bl,0x48(%edi)
    14d0:	41                   	inc    %ecx
    14d1:	53                   	push   %ebx
    14d2:	5f                   	pop    %edi
    14d3:	49                   	dec    %ecx
    14d4:	4e                   	dec    %esi
    14d5:	46                   	inc    %esi
    14d6:	49                   	dec    %ecx
    14d7:	4e                   	dec    %esi
    14d8:	49                   	dec    %ecx
    14d9:	54                   	push   %esp
    14da:	59                   	pop    %ecx
    14db:	5f                   	pop    %edi
    14dc:	5f                   	pop    %edi
    14dd:	20 31                	and    %dh,(%ecx)
    14df:	00 5f 5f             	add    %bl,0x5f(%edi)
    14e2:	44                   	inc    %esp
    14e3:	45                   	inc    %ebp
    14e4:	43                   	inc    %ebx
    14e5:	36 34 5f             	ss xor $0x5f,%al
    14e8:	4d                   	dec    %ebp
    14e9:	41                   	inc    %ecx
    14ea:	58                   	pop    %eax
    14eb:	5f                   	pop    %edi
    14ec:	45                   	inc    %ebp
    14ed:	58                   	pop    %eax
    14ee:	50                   	push   %eax
    14ef:	5f                   	pop    %edi
    14f0:	5f                   	pop    %edi
    14f1:	20 33                	and    %dh,(%ebx)
    14f3:	38 35 00 5f 5f 49    	cmp    %dh,0x495f5f00
    14f9:	4e                   	dec    %esi
    14fa:	54                   	push   %esp
    14fb:	5f                   	pop    %edi
    14fc:	57                   	push   %edi
    14fd:	49                   	dec    %ecx
    14fe:	44                   	inc    %esp
    14ff:	54                   	push   %esp
    1500:	48                   	dec    %eax
    1501:	5f                   	pop    %edi
    1502:	5f                   	pop    %edi
    1503:	20 33                	and    %dh,(%ebx)
    1505:	32 00                	xor    (%eax),%al
    1507:	5f                   	pop    %edi
    1508:	5f                   	pop    %edi
    1509:	55                   	push   %ebp
    150a:	49                   	dec    %ecx
    150b:	4e                   	dec    %esi
    150c:	54                   	push   %esp
    150d:	38 5f 54             	cmp    %bl,0x54(%edi)
    1510:	59                   	pop    %ecx
    1511:	50                   	push   %eax
    1512:	45                   	inc    %ebp
    1513:	5f                   	pop    %edi
    1514:	5f                   	pop    %edi
    1515:	20 75 6e             	and    %dh,0x6e(%ebp)
    1518:	73 69                	jae    1583 <_GLOBAL_OFFSET_TABLE_+0x106f>
    151a:	67 6e                	outsb  %ds:(%si),(%dx)
    151c:	65 64 20 63 68       	gs and %ah,%fs:0x68(%ebx)
    1521:	61                   	popa   
    1522:	72 00                	jb     1524 <_GLOBAL_OFFSET_TABLE_+0x1010>
    1524:	5f                   	pop    %edi
    1525:	5f                   	pop    %edi
    1526:	49                   	dec    %ecx
    1527:	4e                   	dec    %esi
    1528:	54                   	push   %esp
    1529:	4d                   	dec    %ebp
    152a:	41                   	inc    %ecx
    152b:	58                   	pop    %eax
    152c:	5f                   	pop    %edi
    152d:	57                   	push   %edi
    152e:	49                   	dec    %ecx
    152f:	44                   	inc    %esp
    1530:	54                   	push   %esp
    1531:	48                   	dec    %eax
    1532:	5f                   	pop    %edi
    1533:	5f                   	pop    %edi
    1534:	20 36                	and    %dh,(%esi)
    1536:	34 00                	xor    $0x0,%al
    1538:	5f                   	pop    %edi
    1539:	5f                   	pop    %edi
    153a:	4c                   	dec    %esp
    153b:	44                   	inc    %esp
    153c:	42                   	inc    %edx
    153d:	4c                   	dec    %esp
    153e:	5f                   	pop    %edi
    153f:	49                   	dec    %ecx
    1540:	53                   	push   %ebx
    1541:	5f                   	pop    %edi
    1542:	49                   	dec    %ecx
    1543:	45                   	inc    %ebp
    1544:	43                   	inc    %ebx
    1545:	5f                   	pop    %edi
    1546:	36 30 35 35 39 5f 5f 	xor    %dh,%ss:0x5f5f3935
    154d:	20 32                	and    %dh,(%edx)
    154f:	00 5f 5f             	add    %bl,0x5f(%edi)
    1552:	46                   	inc    %esi
    1553:	4c                   	dec    %esp
    1554:	54                   	push   %esp
    1555:	33 32                	xor    (%edx),%esi
    1557:	5f                   	pop    %edi
    1558:	4d                   	dec    %ebp
    1559:	41                   	inc    %ecx
    155a:	58                   	pop    %eax
    155b:	5f                   	pop    %edi
    155c:	31 30                	xor    %esi,(%eax)
    155e:	5f                   	pop    %edi
    155f:	45                   	inc    %ebp
    1560:	58                   	pop    %eax
    1561:	50                   	push   %eax
    1562:	5f                   	pop    %edi
    1563:	5f                   	pop    %edi
    1564:	20 33                	and    %dh,(%ebx)
    1566:	38 00                	cmp    %al,(%eax)
    1568:	5f                   	pop    %edi
    1569:	5f                   	pop    %edi
    156a:	57                   	push   %edi
    156b:	43                   	inc    %ebx
    156c:	48                   	dec    %eax
    156d:	41                   	inc    %ecx
    156e:	52                   	push   %edx
    156f:	5f                   	pop    %edi
    1570:	54                   	push   %esp
    1571:	59                   	pop    %ecx
    1572:	50                   	push   %eax
    1573:	45                   	inc    %ebp
    1574:	5f                   	pop    %edi
    1575:	5f                   	pop    %edi
    1576:	20 6c 6f 6e          	and    %ch,0x6e(%edi,%ebp,2)
    157a:	67 20 69 6e          	and    %ch,0x6e(%bx,%di)
    157e:	74 00                	je     1580 <_GLOBAL_OFFSET_TABLE_+0x106c>
    1580:	5f                   	pop    %edi
    1581:	5f                   	pop    %edi
    1582:	49                   	dec    %ecx
    1583:	4e                   	dec    %esi
    1584:	54                   	push   %esp
    1585:	31 36                	xor    %esi,(%esi)
    1587:	5f                   	pop    %edi
    1588:	54                   	push   %esp
    1589:	59                   	pop    %ecx
    158a:	50                   	push   %eax
    158b:	45                   	inc    %ebp
    158c:	5f                   	pop    %edi
    158d:	5f                   	pop    %edi
    158e:	20 73 68             	and    %dh,0x68(%ebx)
    1591:	6f                   	outsl  %ds:(%esi),(%dx)
    1592:	72 74                	jb     1608 <_GLOBAL_OFFSET_TABLE_+0x10f4>
    1594:	20 69 6e             	and    %ch,0x6e(%ecx)
    1597:	74 00                	je     1599 <_GLOBAL_OFFSET_TABLE_+0x1085>
    1599:	5f                   	pop    %edi
    159a:	5f                   	pop    %edi
    159b:	47                   	inc    %edi
    159c:	43                   	inc    %ebx
    159d:	43                   	inc    %ebx
    159e:	5f                   	pop    %edi
    159f:	41                   	inc    %ecx
    15a0:	54                   	push   %esp
    15a1:	4f                   	dec    %edi
    15a2:	4d                   	dec    %ebp
    15a3:	49                   	dec    %ecx
    15a4:	43                   	inc    %ebx
    15a5:	5f                   	pop    %edi
    15a6:	53                   	push   %ebx
    15a7:	48                   	dec    %eax
    15a8:	4f                   	dec    %edi
    15a9:	52                   	push   %edx
    15aa:	54                   	push   %esp
    15ab:	5f                   	pop    %edi
    15ac:	4c                   	dec    %esp
    15ad:	4f                   	dec    %edi
    15ae:	43                   	inc    %ebx
    15af:	4b                   	dec    %ebx
    15b0:	5f                   	pop    %edi
    15b1:	46                   	inc    %esi
    15b2:	52                   	push   %edx
    15b3:	45                   	inc    %ebp
    15b4:	45                   	inc    %ebp
    15b5:	20 32                	and    %dh,(%edx)
    15b7:	00 5f 5f             	add    %bl,0x5f(%edi)
    15ba:	44                   	inc    %esp
    15bb:	45                   	inc    %ebp
    15bc:	43                   	inc    %ebx
    15bd:	36 34 5f             	ss xor $0x5f,%al
    15c0:	4d                   	dec    %ebp
    15c1:	41                   	inc    %ecx
    15c2:	58                   	pop    %eax
    15c3:	5f                   	pop    %edi
    15c4:	5f                   	pop    %edi
    15c5:	20 39                	and    %bh,(%ecx)
    15c7:	2e 39 39             	cmp    %edi,%cs:(%ecx)
    15ca:	39 39                	cmp    %edi,(%ecx)
    15cc:	39 39                	cmp    %edi,(%ecx)
    15ce:	39 39                	cmp    %edi,(%ecx)
    15d0:	39 39                	cmp    %edi,(%ecx)
    15d2:	39 39                	cmp    %edi,(%ecx)
    15d4:	39 39                	cmp    %edi,(%ecx)
    15d6:	39 45 33             	cmp    %eax,0x33(%ebp)
    15d9:	38 34 44             	cmp    %dh,(%esp,%eax,2)
    15dc:	44                   	inc    %esp
    15dd:	00 5f 5f             	add    %bl,0x5f(%edi)
    15e0:	49                   	dec    %ecx
    15e1:	4e                   	dec    %esi
    15e2:	54                   	push   %esp
    15e3:	5f                   	pop    %edi
    15e4:	46                   	inc    %esi
    15e5:	41                   	inc    %ecx
    15e6:	53                   	push   %ebx
    15e7:	54                   	push   %esp
    15e8:	36 34 5f             	ss xor $0x5f,%al
    15eb:	4d                   	dec    %ebp
    15ec:	41                   	inc    %ecx
    15ed:	58                   	pop    %eax
    15ee:	5f                   	pop    %edi
    15ef:	5f                   	pop    %edi
    15f0:	20 30                	and    %dh,(%eax)
    15f2:	78 37                	js     162b <_GLOBAL_OFFSET_TABLE_+0x1117>
    15f4:	66 66 66 66 66 66 66 	data16 data16 data16 data16 data16 data16 data16 data16 data16 data16 data16 data16 data16 data16
    15fb:	66 66 66 66 66 66 66 
    1602:	66 4c                	dec    %sp
    1604:	4c                   	dec    %esp
    1605:	00 5f 5f             	add    %bl,0x5f(%edi)
    1608:	44                   	inc    %esp
    1609:	45                   	inc    %ebp
    160a:	43                   	inc    %ebx
    160b:	31 32                	xor    %esi,(%edx)
    160d:	38 5f 4d             	cmp    %bl,0x4d(%edi)
    1610:	41                   	inc    %ecx
    1611:	58                   	pop    %eax
    1612:	5f                   	pop    %edi
    1613:	5f                   	pop    %edi
    1614:	20 39                	and    %bh,(%ecx)
    1616:	2e 39 39             	cmp    %edi,%cs:(%ecx)
    1619:	39 39                	cmp    %edi,(%ecx)
    161b:	39 39                	cmp    %edi,(%ecx)
    161d:	39 39                	cmp    %edi,(%ecx)
    161f:	39 39                	cmp    %edi,(%ecx)
    1621:	39 39                	cmp    %edi,(%ecx)
    1623:	39 39                	cmp    %edi,(%ecx)
    1625:	39 39                	cmp    %edi,(%ecx)
    1627:	39 39                	cmp    %edi,(%ecx)
    1629:	39 39                	cmp    %edi,(%ecx)
    162b:	39 39                	cmp    %edi,(%ecx)
    162d:	39 39                	cmp    %edi,(%ecx)
    162f:	39 39                	cmp    %edi,(%ecx)
    1631:	39 39                	cmp    %edi,(%ecx)
    1633:	39 39                	cmp    %edi,(%ecx)
    1635:	39 39                	cmp    %edi,(%ecx)
    1637:	39 45 36             	cmp    %eax,0x36(%ebp)
    163a:	31 34 34             	xor    %esi,(%esp,%esi,1)
    163d:	44                   	inc    %esp
    163e:	4c                   	dec    %esp
    163f:	00 5f 5f             	add    %bl,0x5f(%edi)
    1642:	63 6f 64             	arpl   %bp,0x64(%edi)
    1645:	65 5f                	gs pop %edi
    1647:	6d                   	insl   (%dx),%es:(%edi)
    1648:	6f                   	outsl  %ds:(%esi),(%dx)
    1649:	64 65 6c             	fs gs insb (%dx),%es:(%edi)
    164c:	5f                   	pop    %edi
    164d:	33 32                	xor    (%edx),%esi
    164f:	5f                   	pop    %edi
    1650:	5f                   	pop    %edi
    1651:	20 31                	and    %dh,(%ecx)
    1653:	00 5f 5f             	add    %bl,0x5f(%edi)
    1656:	50                   	push   %eax
    1657:	49                   	dec    %ecx
    1658:	45                   	inc    %ebp
    1659:	5f                   	pop    %edi
    165a:	5f                   	pop    %edi
    165b:	20 32                	and    %dh,(%edx)
    165d:	00 5f 5f             	add    %bl,0x5f(%edi)
    1660:	55                   	push   %ebp
    1661:	49                   	dec    %ecx
    1662:	4e                   	dec    %esi
    1663:	54                   	push   %esp
    1664:	5f                   	pop    %edi
    1665:	4c                   	dec    %esp
    1666:	45                   	inc    %ebp
    1667:	41                   	inc    %ecx
    1668:	53                   	push   %ebx
    1669:	54                   	push   %esp
    166a:	31 36                	xor    %esi,(%esi)
    166c:	5f                   	pop    %edi
    166d:	54                   	push   %esp
    166e:	59                   	pop    %ecx
    166f:	50                   	push   %eax
    1670:	45                   	inc    %ebp
    1671:	5f                   	pop    %edi
    1672:	5f                   	pop    %edi
    1673:	20 73 68             	and    %dh,0x68(%ebx)
    1676:	6f                   	outsl  %ds:(%esi),(%dx)
    1677:	72 74                	jb     16ed <_GLOBAL_OFFSET_TABLE_+0x11d9>
    1679:	20 75 6e             	and    %dh,0x6e(%ebp)
    167c:	73 69                	jae    16e7 <_GLOBAL_OFFSET_TABLE_+0x11d3>
    167e:	67 6e                	outsb  %ds:(%si),(%dx)
    1680:	65 64 20 69 6e       	gs and %ch,%fs:0x6e(%ecx)
    1685:	74 00                	je     1687 <_GLOBAL_OFFSET_TABLE_+0x1173>
    1687:	5f                   	pop    %edi
    1688:	5f                   	pop    %edi
    1689:	49                   	dec    %ecx
    168a:	4e                   	dec    %esi
    168b:	54                   	push   %esp
    168c:	5f                   	pop    %edi
    168d:	46                   	inc    %esi
    168e:	41                   	inc    %ecx
    168f:	53                   	push   %ebx
    1690:	54                   	push   %esp
    1691:	38 5f 54             	cmp    %bl,0x54(%edi)
    1694:	59                   	pop    %ecx
    1695:	50                   	push   %eax
    1696:	45                   	inc    %ebp
    1697:	5f                   	pop    %edi
    1698:	5f                   	pop    %edi
    1699:	20 73 69             	and    %dh,0x69(%ebx)
    169c:	67 6e                	outsb  %ds:(%si),(%dx)
    169e:	65 64 20 63 68       	gs and %ah,%fs:0x68(%ebx)
    16a3:	61                   	popa   
    16a4:	72 00                	jb     16a6 <_GLOBAL_OFFSET_TABLE_+0x1192>
    16a6:	5f                   	pop    %edi
    16a7:	5f                   	pop    %edi
    16a8:	44                   	inc    %esp
    16a9:	42                   	inc    %edx
    16aa:	4c                   	dec    %esp
    16ab:	5f                   	pop    %edi
    16ac:	4d                   	dec    %ebp
    16ad:	41                   	inc    %ecx
    16ae:	58                   	pop    %eax
    16af:	5f                   	pop    %edi
    16b0:	45                   	inc    %ebp
    16b1:	58                   	pop    %eax
    16b2:	50                   	push   %eax
    16b3:	5f                   	pop    %edi
    16b4:	5f                   	pop    %edi
    16b5:	20 31                	and    %dh,(%ecx)
    16b7:	30 32                	xor    %dh,(%edx)
    16b9:	34 00                	xor    $0x0,%al
    16bb:	5f                   	pop    %edi
    16bc:	5f                   	pop    %edi
    16bd:	46                   	inc    %esi
    16be:	4c                   	dec    %esp
    16bf:	54                   	push   %esp
    16c0:	31 32                	xor    %esi,(%edx)
    16c2:	38 5f 49             	cmp    %bl,0x49(%edi)
    16c5:	53                   	push   %ebx
    16c6:	5f                   	pop    %edi
    16c7:	49                   	dec    %ecx
    16c8:	45                   	inc    %ebp
    16c9:	43                   	inc    %ebx
    16ca:	5f                   	pop    %edi
    16cb:	36 30 35 35 39 5f 5f 	xor    %dh,%ss:0x5f5f3935
    16d2:	20 32                	and    %dh,(%edx)
    16d4:	00 5f 5f             	add    %bl,0x5f(%edi)
    16d7:	46                   	inc    %esi
    16d8:	4c                   	dec    %esp
    16d9:	54                   	push   %esp
    16da:	33 32                	xor    (%edx),%esi
    16dc:	58                   	pop    %eax
    16dd:	5f                   	pop    %edi
    16de:	4d                   	dec    %ebp
    16df:	41                   	inc    %ecx
    16e0:	4e                   	dec    %esi
    16e1:	54                   	push   %esp
    16e2:	5f                   	pop    %edi
    16e3:	44                   	inc    %esp
    16e4:	49                   	dec    %ecx
    16e5:	47                   	inc    %edi
    16e6:	5f                   	pop    %edi
    16e7:	5f                   	pop    %edi
    16e8:	20 35 33 00 5f 5f    	and    %dh,0x5f5f0033
    16ee:	4c                   	dec    %esp
    16ef:	41                   	inc    %ecx
    16f0:	48                   	dec    %eax
    16f1:	46                   	inc    %esi
    16f2:	5f                   	pop    %edi
    16f3:	53                   	push   %ebx
    16f4:	41                   	inc    %ecx
    16f5:	48                   	dec    %eax
    16f6:	46                   	inc    %esi
    16f7:	5f                   	pop    %edi
    16f8:	5f                   	pop    %edi
    16f9:	20 31                	and    %dh,(%ecx)
    16fb:	00 5f 5f             	add    %bl,0x5f(%edi)
    16fe:	46                   	inc    %esi
    16ff:	4c                   	dec    %esp
    1700:	54                   	push   %esp
    1701:	33 32                	xor    (%edx),%esi
    1703:	5f                   	pop    %edi
    1704:	45                   	inc    %ebp
    1705:	50                   	push   %eax
    1706:	53                   	push   %ebx
    1707:	49                   	dec    %ecx
    1708:	4c                   	dec    %esp
    1709:	4f                   	dec    %edi
    170a:	4e                   	dec    %esi
    170b:	5f                   	pop    %edi
    170c:	5f                   	pop    %edi
    170d:	20 31                	and    %dh,(%ecx)
    170f:	2e 31 39             	xor    %edi,%cs:(%ecx)
    1712:	32 30                	xor    (%eax),%dh
    1714:	39 32                	cmp    %esi,(%edx)
    1716:	38 39                	cmp    %bh,(%ecx)
    1718:	35 35 30 37 38       	xor    $0x38373035,%eax
    171d:	31 32                	xor    %esi,(%edx)
    171f:	35 30 30 30 30       	xor    $0x30303030,%eax
    1724:	30 30                	xor    %dh,(%eax)
    1726:	30 30                	xor    %dh,(%eax)
    1728:	30 30                	xor    %dh,(%eax)
    172a:	30 30                	xor    %dh,(%eax)
    172c:	30 30                	xor    %dh,(%eax)
    172e:	30 30                	xor    %dh,(%eax)
    1730:	30 30                	xor    %dh,(%eax)
    1732:	30 65 2d             	xor    %ah,0x2d(%ebp)
    1735:	37                   	aaa    
    1736:	46                   	inc    %esi
    1737:	33 32                	xor    (%edx),%esi
    1739:	00 5f 5f             	add    %bl,0x5f(%edi)
    173c:	46                   	inc    %esi
    173d:	4c                   	dec    %esp
    173e:	54                   	push   %esp
    173f:	33 32                	xor    (%edx),%esi
    1741:	58                   	pop    %eax
    1742:	5f                   	pop    %edi
    1743:	4d                   	dec    %ebp
    1744:	41                   	inc    %ecx
    1745:	58                   	pop    %eax
    1746:	5f                   	pop    %edi
    1747:	5f                   	pop    %edi
    1748:	20 31                	and    %dh,(%ecx)
    174a:	2e 37                	cs aaa 
    174c:	39 37                	cmp    %esi,(%edi)
    174e:	36 39 33             	cmp    %esi,%ss:(%ebx)
    1751:	31 33                	xor    %esi,(%ebx)
    1753:	34 38                	xor    $0x38,%al
    1755:	36 32 33             	xor    %ss:(%ebx),%dh
    1758:	31 35 37 30 38 31    	xor    %esi,0x31383037
    175e:	34 35                	xor    $0x35,%al
    1760:	32 37                	xor    (%edi),%dh
    1762:	34 32                	xor    $0x32,%al
    1764:	33 37                	xor    (%edi),%esi
    1766:	33 31                	xor    (%ecx),%esi
    1768:	37                   	aaa    
    1769:	30 34 33             	xor    %dh,(%ebx,%esi,1)
    176c:	35 37 65 2b 33       	xor    $0x332b6537,%eax
    1771:	30 38                	xor    %bh,(%eax)
    1773:	46                   	inc    %esi
    1774:	33 32                	xor    (%edx),%esi
    1776:	78 00                	js     1778 <_GLOBAL_OFFSET_TABLE_+0x1264>
    1778:	5f                   	pop    %edi
    1779:	5f                   	pop    %edi
    177a:	41                   	inc    %ecx
    177b:	54                   	push   %esp
    177c:	4f                   	dec    %edi
    177d:	4d                   	dec    %ebp
    177e:	49                   	dec    %ecx
    177f:	43                   	inc    %ebx
    1780:	5f                   	pop    %edi
    1781:	41                   	inc    %ecx
    1782:	43                   	inc    %ebx
    1783:	51                   	push   %ecx
    1784:	55                   	push   %ebp
    1785:	49                   	dec    %ecx
    1786:	52                   	push   %edx
    1787:	45                   	inc    %ebp
    1788:	20 32                	and    %dh,(%edx)
    178a:	00 5f 5f             	add    %bl,0x5f(%edi)
    178d:	46                   	inc    %esi
    178e:	4c                   	dec    %esp
    178f:	54                   	push   %esp
    1790:	36 34 5f             	ss xor $0x5f,%al
    1793:	49                   	dec    %ecx
    1794:	53                   	push   %ebx
    1795:	5f                   	pop    %edi
    1796:	49                   	dec    %ecx
    1797:	45                   	inc    %ebp
    1798:	43                   	inc    %ebx
    1799:	5f                   	pop    %edi
    179a:	36 30 35 35 39 5f 5f 	xor    %dh,%ss:0x5f5f3935
    17a1:	20 32                	and    %dh,(%edx)
    17a3:	00 5f 5f             	add    %bl,0x5f(%edi)
    17a6:	46                   	inc    %esi
    17a7:	4c                   	dec    %esp
    17a8:	54                   	push   %esp
    17a9:	33 32                	xor    (%edx),%esi
    17ab:	5f                   	pop    %edi
    17ac:	44                   	inc    %esp
    17ad:	45                   	inc    %ebp
    17ae:	43                   	inc    %ebx
    17af:	49                   	dec    %ecx
    17b0:	4d                   	dec    %ebp
    17b1:	41                   	inc    %ecx
    17b2:	4c                   	dec    %esp
    17b3:	5f                   	pop    %edi
    17b4:	44                   	inc    %esp
    17b5:	49                   	dec    %ecx
    17b6:	47                   	inc    %edi
    17b7:	5f                   	pop    %edi
    17b8:	5f                   	pop    %edi
    17b9:	20 39                	and    %bh,(%ecx)
    17bb:	00 5f 5f             	add    %bl,0x5f(%edi)
    17be:	55                   	push   %ebp
    17bf:	49                   	dec    %ecx
    17c0:	4e                   	dec    %esi
    17c1:	54                   	push   %esp
    17c2:	4d                   	dec    %ebp
    17c3:	41                   	inc    %ecx
    17c4:	58                   	pop    %eax
    17c5:	5f                   	pop    %edi
    17c6:	4d                   	dec    %ebp
    17c7:	41                   	inc    %ecx
    17c8:	58                   	pop    %eax
    17c9:	5f                   	pop    %edi
    17ca:	5f                   	pop    %edi
    17cb:	20 30                	and    %dh,(%eax)
    17cd:	78 66                	js     1835 <_GLOBAL_OFFSET_TABLE_+0x1321>
    17cf:	66 66 66 66 66 66 66 	data16 data16 data16 data16 data16 data16 data16 data16 data16 data16 data16 data16 data16 data16
    17d6:	66 66 66 66 66 66 66 
    17dd:	66 55                	push   %bp
    17df:	4c                   	dec    %esp
    17e0:	4c                   	dec    %esp
    17e1:	00 5f 5f             	add    %bl,0x5f(%edi)
    17e4:	49                   	dec    %ecx
    17e5:	4e                   	dec    %esi
    17e6:	54                   	push   %esp
    17e7:	5f                   	pop    %edi
    17e8:	4c                   	dec    %esp
    17e9:	45                   	inc    %ebp
    17ea:	41                   	inc    %ecx
    17eb:	53                   	push   %ebx
    17ec:	54                   	push   %esp
    17ed:	33 32                	xor    (%edx),%esi
    17ef:	5f                   	pop    %edi
    17f0:	4d                   	dec    %ebp
    17f1:	41                   	inc    %ecx
    17f2:	58                   	pop    %eax
    17f3:	5f                   	pop    %edi
    17f4:	5f                   	pop    %edi
    17f5:	20 30                	and    %dh,(%eax)
    17f7:	78 37                	js     1830 <_GLOBAL_OFFSET_TABLE_+0x131c>
    17f9:	66 66 66 66 66 66 66 	data16 data16 data16 data16 data16 data16 data16 add %bl,0x5f(%edi)
    1800:	00 5f 5f 
    1803:	47                   	inc    %edi
    1804:	43                   	inc    %ebx
    1805:	43                   	inc    %ebx
    1806:	5f                   	pop    %edi
    1807:	41                   	inc    %ecx
    1808:	54                   	push   %esp
    1809:	4f                   	dec    %edi
    180a:	4d                   	dec    %ebp
    180b:	49                   	dec    %ecx
    180c:	43                   	inc    %ebx
    180d:	5f                   	pop    %edi
    180e:	43                   	inc    %ebx
    180f:	48                   	dec    %eax
    1810:	41                   	inc    %ecx
    1811:	52                   	push   %edx
    1812:	5f                   	pop    %edi
    1813:	4c                   	dec    %esp
    1814:	4f                   	dec    %edi
    1815:	43                   	inc    %ebx
    1816:	4b                   	dec    %ebx
    1817:	5f                   	pop    %edi
    1818:	46                   	inc    %esi
    1819:	52                   	push   %edx
    181a:	45                   	inc    %ebp
    181b:	45                   	inc    %ebp
    181c:	20 32                	and    %dh,(%edx)
    181e:	00 5f 5f             	add    %bl,0x5f(%edi)
    1821:	44                   	inc    %esp
    1822:	45                   	inc    %ebp
    1823:	43                   	inc    %ebx
    1824:	31 32                	xor    %esi,(%edx)
    1826:	38 5f 45             	cmp    %bl,0x45(%edi)
    1829:	50                   	push   %eax
    182a:	53                   	push   %ebx
    182b:	49                   	dec    %ecx
    182c:	4c                   	dec    %esp
    182d:	4f                   	dec    %edi
    182e:	4e                   	dec    %esi
    182f:	5f                   	pop    %edi
    1830:	5f                   	pop    %edi
    1831:	20 31                	and    %dh,(%ecx)
    1833:	45                   	inc    %ebp
    1834:	2d 33 33 44 4c       	sub    $0x4c443333,%eax
    1839:	00 5f 5f             	add    %bl,0x5f(%edi)
    183c:	53                   	push   %ebx
    183d:	49                   	dec    %ecx
    183e:	5a                   	pop    %edx
    183f:	45                   	inc    %ebp
    1840:	4f                   	dec    %edi
    1841:	46                   	inc    %esi
    1842:	5f                   	pop    %edi
    1843:	50                   	push   %eax
    1844:	54                   	push   %esp
    1845:	52                   	push   %edx
    1846:	44                   	inc    %esp
    1847:	49                   	dec    %ecx
    1848:	46                   	inc    %esi
    1849:	46                   	inc    %esi
    184a:	5f                   	pop    %edi
    184b:	54                   	push   %esp
    184c:	5f                   	pop    %edi
    184d:	5f                   	pop    %edi
    184e:	20 34 00             	and    %dh,(%eax,%eax,1)
    1851:	5f                   	pop    %edi
    1852:	5f                   	pop    %edi
    1853:	46                   	inc    %esi
    1854:	4c                   	dec    %esp
    1855:	54                   	push   %esp
    1856:	5f                   	pop    %edi
    1857:	4d                   	dec    %ebp
    1858:	41                   	inc    %ecx
    1859:	58                   	pop    %eax
    185a:	5f                   	pop    %edi
    185b:	5f                   	pop    %edi
    185c:	20 33                	and    %dh,(%ebx)
    185e:	2e 34 30             	cs xor $0x30,%al
    1861:	32 38                	xor    (%eax),%bh
    1863:	32 33                	xor    (%ebx),%dh
    1865:	34 36                	xor    $0x36,%al
    1867:	36 33 38             	xor    %ss:(%eax),%edi
    186a:	35 32 38 38 35       	xor    $0x35383832,%eax
    186f:	39 38                	cmp    %edi,(%eax)
    1871:	31 31                	xor    %esi,(%ecx)
    1873:	37                   	aaa    
    1874:	30 34 31             	xor    %dh,(%ecx,%esi,1)
    1877:	38 33                	cmp    %dh,(%ebx)
    1879:	34 38                	xor    $0x38,%al
    187b:	34 35                	xor    $0x35,%al
    187d:	31 36                	xor    %esi,(%esi)
    187f:	39 32                	cmp    %esi,(%edx)
    1881:	35 65 2b 33 38       	xor    $0x38332b65,%eax
    1886:	46                   	inc    %esi
    1887:	00 5f 5f             	add    %bl,0x5f(%edi)
    188a:	53                   	push   %ebx
    188b:	49                   	dec    %ecx
    188c:	5a                   	pop    %edx
    188d:	45                   	inc    %ebp
    188e:	4f                   	dec    %edi
    188f:	46                   	inc    %esi
    1890:	5f                   	pop    %edi
    1891:	57                   	push   %edi
    1892:	43                   	inc    %ebx
    1893:	48                   	dec    %eax
    1894:	41                   	inc    %ecx
    1895:	52                   	push   %edx
    1896:	5f                   	pop    %edi
    1897:	54                   	push   %esp
    1898:	5f                   	pop    %edi
    1899:	5f                   	pop    %edi
    189a:	20 34 00             	and    %dh,(%eax,%eax,1)
    189d:	5f                   	pop    %edi
    189e:	5f                   	pop    %edi
    189f:	46                   	inc    %esi
    18a0:	4c                   	dec    %esp
    18a1:	54                   	push   %esp
    18a2:	33 32                	xor    (%edx),%esi
    18a4:	58                   	pop    %eax
    18a5:	5f                   	pop    %edi
    18a6:	44                   	inc    %esp
    18a7:	45                   	inc    %ebp
    18a8:	43                   	inc    %ebx
    18a9:	49                   	dec    %ecx
    18aa:	4d                   	dec    %ebp
    18ab:	41                   	inc    %ecx
    18ac:	4c                   	dec    %esp
    18ad:	5f                   	pop    %edi
    18ae:	44                   	inc    %esp
    18af:	49                   	dec    %ecx
    18b0:	47                   	inc    %edi
    18b1:	5f                   	pop    %edi
    18b2:	5f                   	pop    %edi
    18b3:	20 31                	and    %dh,(%ecx)
    18b5:	37                   	aaa    
    18b6:	00 5f 5f             	add    %bl,0x5f(%edi)
    18b9:	55                   	push   %ebp
    18ba:	49                   	dec    %ecx
    18bb:	4e                   	dec    %esi
    18bc:	54                   	push   %esp
    18bd:	5f                   	pop    %edi
    18be:	46                   	inc    %esi
    18bf:	41                   	inc    %ecx
    18c0:	53                   	push   %ebx
    18c1:	54                   	push   %esp
    18c2:	38 5f 54             	cmp    %bl,0x54(%edi)
    18c5:	59                   	pop    %ecx
    18c6:	50                   	push   %eax
    18c7:	45                   	inc    %ebp
    18c8:	5f                   	pop    %edi
    18c9:	5f                   	pop    %edi
    18ca:	20 75 6e             	and    %dh,0x6e(%ebp)
    18cd:	73 69                	jae    1938 <_GLOBAL_OFFSET_TABLE_+0x1424>
    18cf:	67 6e                	outsb  %ds:(%si),(%dx)
    18d1:	65 64 20 63 68       	gs and %ah,%fs:0x68(%ebx)
    18d6:	61                   	popa   
    18d7:	72 00                	jb     18d9 <_GLOBAL_OFFSET_TABLE_+0x13c5>
    18d9:	5f                   	pop    %edi
    18da:	5f                   	pop    %edi
    18db:	55                   	push   %ebp
    18dc:	49                   	dec    %ecx
    18dd:	4e                   	dec    %esi
    18de:	54                   	push   %esp
    18df:	5f                   	pop    %edi
    18e0:	46                   	inc    %esi
    18e1:	41                   	inc    %ecx
    18e2:	53                   	push   %ebx
    18e3:	54                   	push   %esp
    18e4:	33 32                	xor    (%edx),%esi
    18e6:	5f                   	pop    %edi
    18e7:	54                   	push   %esp
    18e8:	59                   	pop    %ecx
    18e9:	50                   	push   %eax
    18ea:	45                   	inc    %ebp
    18eb:	5f                   	pop    %edi
    18ec:	5f                   	pop    %edi
    18ed:	20 75 6e             	and    %dh,0x6e(%ebp)
    18f0:	73 69                	jae    195b <_GLOBAL_OFFSET_TABLE_+0x1447>
    18f2:	67 6e                	outsb  %ds:(%si),(%dx)
    18f4:	65 64 20 69 6e       	gs and %ch,%fs:0x6e(%ecx)
    18f9:	74 00                	je     18fb <_GLOBAL_OFFSET_TABLE_+0x13e7>
    18fb:	5f                   	pop    %edi
    18fc:	5f                   	pop    %edi
    18fd:	49                   	dec    %ecx
    18fe:	4e                   	dec    %esi
    18ff:	54                   	push   %esp
    1900:	5f                   	pop    %edi
    1901:	4c                   	dec    %esp
    1902:	45                   	inc    %ebp
    1903:	41                   	inc    %ecx
    1904:	53                   	push   %ebx
    1905:	54                   	push   %esp
    1906:	33 32                	xor    (%edx),%esi
    1908:	5f                   	pop    %edi
    1909:	54                   	push   %esp
    190a:	59                   	pop    %ecx
    190b:	50                   	push   %eax
    190c:	45                   	inc    %ebp
    190d:	5f                   	pop    %edi
    190e:	5f                   	pop    %edi
    190f:	20 69 6e             	and    %ch,0x6e(%ecx)
    1912:	74 00                	je     1914 <_GLOBAL_OFFSET_TABLE_+0x1400>
    1914:	5f                   	pop    %edi
    1915:	5f                   	pop    %edi
    1916:	45                   	inc    %ebp
    1917:	4c                   	dec    %esp
    1918:	46                   	inc    %esi
    1919:	5f                   	pop    %edi
    191a:	5f                   	pop    %edi
    191b:	20 31                	and    %dh,(%ecx)
    191d:	00 5f 5f             	add    %bl,0x5f(%edi)
    1920:	46                   	inc    %esi
    1921:	4c                   	dec    %esp
    1922:	54                   	push   %esp
    1923:	36 34 5f             	ss xor $0x5f,%al
    1926:	4d                   	dec    %ebp
    1927:	49                   	dec    %ecx
    1928:	4e                   	dec    %esi
    1929:	5f                   	pop    %edi
    192a:	31 30                	xor    %esi,(%eax)
    192c:	5f                   	pop    %edi
    192d:	45                   	inc    %ebp
    192e:	58                   	pop    %eax
    192f:	50                   	push   %eax
    1930:	5f                   	pop    %edi
    1931:	5f                   	pop    %edi
    1932:	20 28                	and    %ch,(%eax)
    1934:	2d 33 30 37 29       	sub    $0x29373033,%eax
    1939:	00 5f 5f             	add    %bl,0x5f(%edi)
    193c:	4c                   	dec    %esp
    193d:	44                   	inc    %esp
    193e:	42                   	inc    %edx
    193f:	4c                   	dec    %esp
    1940:	5f                   	pop    %edi
    1941:	44                   	inc    %esp
    1942:	49                   	dec    %ecx
    1943:	47                   	inc    %edi
    1944:	5f                   	pop    %edi
    1945:	5f                   	pop    %edi
    1946:	20 31                	and    %dh,(%ecx)
    1948:	38 00                	cmp    %al,(%eax)
    194a:	5f                   	pop    %edi
    194b:	5f                   	pop    %edi
    194c:	46                   	inc    %esi
    194d:	4c                   	dec    %esp
    194e:	54                   	push   %esp
    194f:	36 34 58             	ss xor $0x58,%al
    1952:	5f                   	pop    %edi
    1953:	44                   	inc    %esp
    1954:	45                   	inc    %ebp
    1955:	43                   	inc    %ebx
    1956:	49                   	dec    %ecx
    1957:	4d                   	dec    %ebp
    1958:	41                   	inc    %ecx
    1959:	4c                   	dec    %esp
    195a:	5f                   	pop    %edi
    195b:	44                   	inc    %esp
    195c:	49                   	dec    %ecx
    195d:	47                   	inc    %edi
    195e:	5f                   	pop    %edi
    195f:	5f                   	pop    %edi
    1960:	20 32                	and    %dh,(%edx)
    1962:	31 00                	xor    %eax,(%eax)
    1964:	5f                   	pop    %edi
    1965:	5f                   	pop    %edi
    1966:	46                   	inc    %esi
    1967:	4c                   	dec    %esp
    1968:	54                   	push   %esp
    1969:	33 32                	xor    (%edx),%esi
    196b:	58                   	pop    %eax
    196c:	5f                   	pop    %edi
    196d:	48                   	dec    %eax
    196e:	41                   	inc    %ecx
    196f:	53                   	push   %ebx
    1970:	5f                   	pop    %edi
    1971:	49                   	dec    %ecx
    1972:	4e                   	dec    %esi
    1973:	46                   	inc    %esi
    1974:	49                   	dec    %ecx
    1975:	4e                   	dec    %esi
    1976:	49                   	dec    %ecx
    1977:	54                   	push   %esp
    1978:	59                   	pop    %ecx
    1979:	5f                   	pop    %edi
    197a:	5f                   	pop    %edi
    197b:	20 31                	and    %dh,(%ecx)
    197d:	00 5f 5f             	add    %bl,0x5f(%edi)
    1980:	41                   	inc    %ecx
    1981:	54                   	push   %esp
    1982:	4f                   	dec    %edi
    1983:	4d                   	dec    %ebp
    1984:	49                   	dec    %ecx
    1985:	43                   	inc    %ebx
    1986:	5f                   	pop    %edi
    1987:	48                   	dec    %eax
    1988:	4c                   	dec    %esp
    1989:	45                   	inc    %ebp
    198a:	5f                   	pop    %edi
    198b:	41                   	inc    %ecx
    198c:	43                   	inc    %ebx
    198d:	51                   	push   %ecx
    198e:	55                   	push   %ebp
    198f:	49                   	dec    %ecx
    1990:	52                   	push   %edx
    1991:	45                   	inc    %ebp
    1992:	20 36                	and    %dh,(%esi)
    1994:	35 35 33 36 00       	xor    $0x363335,%eax
    1999:	5f                   	pop    %edi
    199a:	5f                   	pop    %edi
    199b:	41                   	inc    %ecx
    199c:	54                   	push   %esp
    199d:	4f                   	dec    %edi
    199e:	4d                   	dec    %ebp
    199f:	49                   	dec    %ecx
    19a0:	43                   	inc    %ebx
    19a1:	5f                   	pop    %edi
    19a2:	48                   	dec    %eax
    19a3:	4c                   	dec    %esp
    19a4:	45                   	inc    %ebp
    19a5:	5f                   	pop    %edi
    19a6:	52                   	push   %edx
    19a7:	45                   	inc    %ebp
    19a8:	4c                   	dec    %esp
    19a9:	45                   	inc    %ebp
    19aa:	41                   	inc    %ecx
    19ab:	53                   	push   %ebx
    19ac:	45                   	inc    %ebp
    19ad:	20 31                	and    %dh,(%ecx)
    19af:	33 31                	xor    (%ecx),%esi
    19b1:	30 37                	xor    %dh,(%edi)
    19b3:	32 00                	xor    (%eax),%al
    19b5:	5f                   	pop    %edi
    19b6:	5f                   	pop    %edi
    19b7:	46                   	inc    %esi
    19b8:	4c                   	dec    %esp
    19b9:	54                   	push   %esp
    19ba:	36 34 5f             	ss xor $0x5f,%al
    19bd:	48                   	dec    %eax
    19be:	41                   	inc    %ecx
    19bf:	53                   	push   %ebx
    19c0:	5f                   	pop    %edi
    19c1:	44                   	inc    %esp
    19c2:	45                   	inc    %ebp
    19c3:	4e                   	dec    %esi
    19c4:	4f                   	dec    %edi
    19c5:	52                   	push   %edx
    19c6:	4d                   	dec    %ebp
    19c7:	5f                   	pop    %edi
    19c8:	5f                   	pop    %edi
    19c9:	20 31                	and    %dh,(%ecx)
    19cb:	00 5f 5f             	add    %bl,0x5f(%edi)
    19ce:	49                   	dec    %ecx
    19cf:	4e                   	dec    %esi
    19d0:	54                   	push   %esp
    19d1:	5f                   	pop    %edi
    19d2:	4c                   	dec    %esp
    19d3:	45                   	inc    %ebp
    19d4:	41                   	inc    %ecx
    19d5:	53                   	push   %ebx
    19d6:	54                   	push   %esp
    19d7:	31 36                	xor    %esi,(%esi)
    19d9:	5f                   	pop    %edi
    19da:	4d                   	dec    %ebp
    19db:	41                   	inc    %ecx
    19dc:	58                   	pop    %eax
    19dd:	5f                   	pop    %edi
    19de:	5f                   	pop    %edi
    19df:	20 30                	and    %dh,(%eax)
    19e1:	78 37                	js     1a1a <_GLOBAL_OFFSET_TABLE_+0x1506>
    19e3:	66 66 66 00 5f 5f    	data16 data16 data16 add %bl,0x5f(%edi)
    19e9:	46                   	inc    %esi
    19ea:	4c                   	dec    %esp
    19eb:	54                   	push   %esp
    19ec:	31 32                	xor    %esi,(%edx)
    19ee:	38 5f 48             	cmp    %bl,0x48(%edi)
    19f1:	41                   	inc    %ecx
    19f2:	53                   	push   %ebx
    19f3:	5f                   	pop    %edi
    19f4:	51                   	push   %ecx
    19f5:	55                   	push   %ebp
    19f6:	49                   	dec    %ecx
    19f7:	45                   	inc    %ebp
    19f8:	54                   	push   %esp
    19f9:	5f                   	pop    %edi
    19fa:	4e                   	dec    %esi
    19fb:	41                   	inc    %ecx
    19fc:	4e                   	dec    %esi
    19fd:	5f                   	pop    %edi
    19fe:	5f                   	pop    %edi
    19ff:	20 31                	and    %dh,(%ecx)
    1a01:	00 5f 5f             	add    %bl,0x5f(%edi)
    1a04:	44                   	inc    %esp
    1a05:	45                   	inc    %ebp
    1a06:	43                   	inc    %ebx
    1a07:	31 32                	xor    %esi,(%edx)
    1a09:	38 5f 4d             	cmp    %bl,0x4d(%edi)
    1a0c:	41                   	inc    %ecx
    1a0d:	4e                   	dec    %esi
    1a0e:	54                   	push   %esp
    1a0f:	5f                   	pop    %edi
    1a10:	44                   	inc    %esp
    1a11:	49                   	dec    %ecx
    1a12:	47                   	inc    %edi
    1a13:	5f                   	pop    %edi
    1a14:	5f                   	pop    %edi
    1a15:	20 33                	and    %dh,(%ebx)
    1a17:	34 00                	xor    $0x0,%al
    1a19:	5f                   	pop    %edi
    1a1a:	5f                   	pop    %edi
    1a1b:	49                   	dec    %ecx
    1a1c:	4e                   	dec    %esi
    1a1d:	54                   	push   %esp
    1a1e:	33 32                	xor    (%edx),%esi
    1a20:	5f                   	pop    %edi
    1a21:	43                   	inc    %ebx
    1a22:	28 63 29             	sub    %ah,0x29(%ebx)
    1a25:	20 63 00             	and    %ah,0x0(%ebx)
    1a28:	5f                   	pop    %edi
    1a29:	5f                   	pop    %edi
    1a2a:	44                   	inc    %esp
    1a2b:	45                   	inc    %ebp
    1a2c:	43                   	inc    %ebx
    1a2d:	36 34 5f             	ss xor $0x5f,%al
    1a30:	4d                   	dec    %ebp
    1a31:	49                   	dec    %ecx
    1a32:	4e                   	dec    %esi
    1a33:	5f                   	pop    %edi
    1a34:	45                   	inc    %ebp
    1a35:	58                   	pop    %eax
    1a36:	50                   	push   %eax
    1a37:	5f                   	pop    %edi
    1a38:	5f                   	pop    %edi
    1a39:	20 28                	and    %ch,(%eax)
    1a3b:	2d 33 38 32 29       	sub    $0x29323833,%eax
    1a40:	00 5f 5f             	add    %bl,0x5f(%edi)
    1a43:	57                   	push   %edi
    1a44:	49                   	dec    %ecx
    1a45:	4e                   	dec    %esi
    1a46:	54                   	push   %esp
    1a47:	5f                   	pop    %edi
    1a48:	57                   	push   %edi
    1a49:	49                   	dec    %ecx
    1a4a:	44                   	inc    %esp
    1a4b:	54                   	push   %esp
    1a4c:	48                   	dec    %eax
    1a4d:	5f                   	pop    %edi
    1a4e:	5f                   	pop    %edi
    1a4f:	20 33                	and    %dh,(%ebx)
    1a51:	32 00                	xor    (%eax),%al
    1a53:	5f                   	pop    %edi
    1a54:	5f                   	pop    %edi
    1a55:	46                   	inc    %esi
    1a56:	4c                   	dec    %esp
    1a57:	54                   	push   %esp
    1a58:	31 32                	xor    %esi,(%edx)
    1a5a:	38 5f 44             	cmp    %bl,0x44(%edi)
    1a5d:	45                   	inc    %ebp
    1a5e:	43                   	inc    %ebx
    1a5f:	49                   	dec    %ecx
    1a60:	4d                   	dec    %ebp
    1a61:	41                   	inc    %ecx
    1a62:	4c                   	dec    %esp
    1a63:	5f                   	pop    %edi
    1a64:	44                   	inc    %esp
    1a65:	49                   	dec    %ecx
    1a66:	47                   	inc    %edi
    1a67:	5f                   	pop    %edi
    1a68:	5f                   	pop    %edi
    1a69:	20 33                	and    %dh,(%ebx)
    1a6b:	36 00 5f 5f          	add    %bl,%ss:0x5f(%edi)
    1a6f:	57                   	push   %edi
    1a70:	43                   	inc    %ebx
    1a71:	48                   	dec    %eax
    1a72:	41                   	inc    %ecx
    1a73:	52                   	push   %edx
    1a74:	5f                   	pop    %edi
    1a75:	4d                   	dec    %ebp
    1a76:	49                   	dec    %ecx
    1a77:	4e                   	dec    %esi
    1a78:	5f                   	pop    %edi
    1a79:	5f                   	pop    %edi
    1a7a:	20 28                	and    %ch,(%eax)
    1a7c:	2d 5f 5f 57 43       	sub    $0x43575f5f,%eax
    1a81:	48                   	dec    %eax
    1a82:	41                   	inc    %ecx
    1a83:	52                   	push   %edx
    1a84:	5f                   	pop    %edi
    1a85:	4d                   	dec    %ebp
    1a86:	41                   	inc    %ecx
    1a87:	58                   	pop    %eax
    1a88:	5f                   	pop    %edi
    1a89:	5f                   	pop    %edi
    1a8a:	20 2d 20 31 29 00    	and    %ch,0x293120
    1a90:	5f                   	pop    %edi
    1a91:	5f                   	pop    %edi
    1a92:	47                   	inc    %edi
    1a93:	43                   	inc    %ebx
    1a94:	43                   	inc    %ebx
    1a95:	5f                   	pop    %edi
    1a96:	48                   	dec    %eax
    1a97:	41                   	inc    %ecx
    1a98:	56                   	push   %esi
    1a99:	45                   	inc    %ebp
    1a9a:	5f                   	pop    %edi
    1a9b:	53                   	push   %ebx
    1a9c:	59                   	pop    %ecx
    1a9d:	4e                   	dec    %esi
    1a9e:	43                   	inc    %ebx
    1a9f:	5f                   	pop    %edi
    1aa0:	43                   	inc    %ebx
    1aa1:	4f                   	dec    %edi
    1aa2:	4d                   	dec    %ebp
    1aa3:	50                   	push   %eax
    1aa4:	41                   	inc    %ecx
    1aa5:	52                   	push   %edx
    1aa6:	45                   	inc    %ebp
    1aa7:	5f                   	pop    %edi
    1aa8:	41                   	inc    %ecx
    1aa9:	4e                   	dec    %esi
    1aaa:	44                   	inc    %esp
    1aab:	5f                   	pop    %edi
    1aac:	53                   	push   %ebx
    1aad:	57                   	push   %edi
    1aae:	41                   	inc    %ecx
    1aaf:	50                   	push   %eax
    1ab0:	5f                   	pop    %edi
    1ab1:	32 20                	xor    (%eax),%ah
    1ab3:	31 00                	xor    %eax,(%eax)
    1ab5:	5f                   	pop    %edi
    1ab6:	5f                   	pop    %edi
    1ab7:	4c                   	dec    %esp
    1ab8:	44                   	inc    %esp
    1ab9:	42                   	inc    %edx
    1aba:	4c                   	dec    %esp
    1abb:	5f                   	pop    %edi
    1abc:	4d                   	dec    %ebp
    1abd:	41                   	inc    %ecx
    1abe:	58                   	pop    %eax
    1abf:	5f                   	pop    %edi
    1ac0:	45                   	inc    %ebp
    1ac1:	58                   	pop    %eax
    1ac2:	50                   	push   %eax
    1ac3:	5f                   	pop    %edi
    1ac4:	5f                   	pop    %edi
    1ac5:	20 31                	and    %dh,(%ecx)
    1ac7:	36 33 38             	xor    %ss:(%eax),%edi
    1aca:	34 00                	xor    $0x0,%al
    1acc:	5f                   	pop    %edi
    1acd:	5f                   	pop    %edi
    1ace:	46                   	inc    %esi
    1acf:	4c                   	dec    %esp
    1ad0:	54                   	push   %esp
    1ad1:	36 34 58             	ss xor $0x58,%al
    1ad4:	5f                   	pop    %edi
    1ad5:	44                   	inc    %esp
    1ad6:	49                   	dec    %ecx
    1ad7:	47                   	inc    %edi
    1ad8:	5f                   	pop    %edi
    1ad9:	5f                   	pop    %edi
    1ada:	20 31                	and    %dh,(%ecx)
    1adc:	38 00                	cmp    %al,(%eax)
    1ade:	5f                   	pop    %edi
    1adf:	5f                   	pop    %edi
    1ae0:	46                   	inc    %esi
    1ae1:	4c                   	dec    %esp
    1ae2:	54                   	push   %esp
    1ae3:	33 32                	xor    (%edx),%esi
    1ae5:	58                   	pop    %eax
    1ae6:	5f                   	pop    %edi
    1ae7:	44                   	inc    %esp
    1ae8:	49                   	dec    %ecx
    1ae9:	47                   	inc    %edi
    1aea:	5f                   	pop    %edi
    1aeb:	5f                   	pop    %edi
    1aec:	20 31                	and    %dh,(%ecx)
    1aee:	35 00 5f 5f 46       	xor    $0x465f5f00,%eax
    1af3:	4c                   	dec    %esp
    1af4:	54                   	push   %esp
    1af5:	33 32                	xor    (%edx),%esi
    1af7:	58                   	pop    %eax
    1af8:	5f                   	pop    %edi
    1af9:	48                   	dec    %eax
    1afa:	41                   	inc    %ecx
    1afb:	53                   	push   %ebx
    1afc:	5f                   	pop    %edi
    1afd:	44                   	inc    %esp
    1afe:	45                   	inc    %ebp
    1aff:	4e                   	dec    %esi
    1b00:	4f                   	dec    %edi
    1b01:	52                   	push   %edx
    1b02:	4d                   	dec    %ebp
    1b03:	5f                   	pop    %edi
    1b04:	5f                   	pop    %edi
    1b05:	20 31                	and    %dh,(%ecx)
    1b07:	00 5f 5f             	add    %bl,0x5f(%edi)
    1b0a:	43                   	inc    %ebx
    1b0b:	48                   	dec    %eax
    1b0c:	41                   	inc    %ecx
    1b0d:	52                   	push   %edx
    1b0e:	33 32                	xor    (%edx),%esi
    1b10:	5f                   	pop    %edi
    1b11:	54                   	push   %esp
    1b12:	59                   	pop    %ecx
    1b13:	50                   	push   %eax
    1b14:	45                   	inc    %ebp
    1b15:	5f                   	pop    %edi
    1b16:	5f                   	pop    %edi
    1b17:	20 75 6e             	and    %dh,0x6e(%ebp)
    1b1a:	73 69                	jae    1b85 <_GLOBAL_OFFSET_TABLE_+0x1671>
    1b1c:	67 6e                	outsb  %ds:(%si),(%dx)
    1b1e:	65 64 20 69 6e       	gs and %ch,%fs:0x6e(%ecx)
    1b23:	74 00                	je     1b25 <_GLOBAL_OFFSET_TABLE_+0x1611>
    1b25:	5f                   	pop    %edi
    1b26:	5f                   	pop    %edi
    1b27:	46                   	inc    %esi
    1b28:	4c                   	dec    %esp
    1b29:	54                   	push   %esp
    1b2a:	36 34 58             	ss xor $0x58,%al
    1b2d:	5f                   	pop    %edi
    1b2e:	4d                   	dec    %ebp
    1b2f:	49                   	dec    %ecx
    1b30:	4e                   	dec    %esi
    1b31:	5f                   	pop    %edi
    1b32:	31 30                	xor    %esi,(%eax)
    1b34:	5f                   	pop    %edi
    1b35:	45                   	inc    %ebp
    1b36:	58                   	pop    %eax
    1b37:	50                   	push   %eax
    1b38:	5f                   	pop    %edi
    1b39:	5f                   	pop    %edi
    1b3a:	20 28                	and    %ch,(%eax)
    1b3c:	2d 34 39 33 31       	sub    $0x31333934,%eax
    1b41:	29 00                	sub    %eax,(%eax)
    1b43:	5f                   	pop    %edi
    1b44:	5f                   	pop    %edi
    1b45:	49                   	dec    %ecx
    1b46:	4e                   	dec    %esi
    1b47:	54                   	push   %esp
    1b48:	4d                   	dec    %ebp
    1b49:	41                   	inc    %ecx
    1b4a:	58                   	pop    %eax
    1b4b:	5f                   	pop    %edi
    1b4c:	43                   	inc    %ebx
    1b4d:	28 63 29             	sub    %ah,0x29(%ebx)
    1b50:	20 63 20             	and    %ah,0x20(%ebx)
    1b53:	23 23                	and    (%ebx),%esp
    1b55:	20 4c 4c 00          	and    %cl,0x0(%esp,%ecx,2)
    1b59:	5f                   	pop    %edi
    1b5a:	5f                   	pop    %edi
    1b5b:	70 69                	jo     1bc6 <_GLOBAL_OFFSET_TABLE_+0x16b2>
    1b5d:	65 5f                	gs pop %edi
    1b5f:	5f                   	pop    %edi
    1b60:	20 32                	and    %dh,(%edx)
    1b62:	00 5f 5f             	add    %bl,0x5f(%edi)
    1b65:	50                   	push   %eax
    1b66:	54                   	push   %esp
    1b67:	52                   	push   %edx
    1b68:	44                   	inc    %esp
    1b69:	49                   	dec    %ecx
    1b6a:	46                   	inc    %esi
    1b6b:	46                   	inc    %esi
    1b6c:	5f                   	pop    %edi
    1b6d:	4d                   	dec    %ebp
    1b6e:	41                   	inc    %ecx
    1b6f:	58                   	pop    %eax
    1b70:	5f                   	pop    %edi
    1b71:	5f                   	pop    %edi
    1b72:	20 30                	and    %dh,(%eax)
    1b74:	78 37                	js     1bad <_GLOBAL_OFFSET_TABLE_+0x1699>
    1b76:	66 66 66 66 66 66 66 	data16 data16 data16 data16 data16 data16 data16 add %bl,0x5f(%edi)
    1b7d:	00 5f 5f 
    1b80:	49                   	dec    %ecx
    1b81:	4e                   	dec    %esi
    1b82:	54                   	push   %esp
    1b83:	5f                   	pop    %edi
    1b84:	4c                   	dec    %esp
    1b85:	45                   	inc    %ebp
    1b86:	41                   	inc    %ecx
    1b87:	53                   	push   %ebx
    1b88:	54                   	push   %esp
    1b89:	38 5f 54             	cmp    %bl,0x54(%edi)
    1b8c:	59                   	pop    %ecx
    1b8d:	50                   	push   %eax
    1b8e:	45                   	inc    %ebp
    1b8f:	5f                   	pop    %edi
    1b90:	5f                   	pop    %edi
    1b91:	20 73 69             	and    %dh,0x69(%ebx)
    1b94:	67 6e                	outsb  %ds:(%si),(%dx)
    1b96:	65 64 20 63 68       	gs and %ah,%fs:0x68(%ebx)
    1b9b:	61                   	popa   
    1b9c:	72 00                	jb     1b9e <_GLOBAL_OFFSET_TABLE_+0x168a>
    1b9e:	5f                   	pop    %edi
    1b9f:	5f                   	pop    %edi
    1ba0:	55                   	push   %ebp
    1ba1:	49                   	dec    %ecx
    1ba2:	4e                   	dec    %esi
    1ba3:	54                   	push   %esp
    1ba4:	31 36                	xor    %esi,(%esi)
    1ba6:	5f                   	pop    %edi
    1ba7:	43                   	inc    %ebx
    1ba8:	28 63 29             	sub    %ah,0x29(%ebx)
    1bab:	20 63 00             	and    %ah,0x0(%ebx)
    1bae:	5f                   	pop    %edi
    1baf:	5f                   	pop    %edi
    1bb0:	53                   	push   %ebx
    1bb1:	48                   	dec    %eax
    1bb2:	52                   	push   %edx
    1bb3:	54                   	push   %esp
    1bb4:	5f                   	pop    %edi
    1bb5:	4d                   	dec    %ebp
    1bb6:	41                   	inc    %ecx
    1bb7:	58                   	pop    %eax
    1bb8:	5f                   	pop    %edi
    1bb9:	5f                   	pop    %edi
    1bba:	20 30                	and    %dh,(%eax)
    1bbc:	78 37                	js     1bf5 <_GLOBAL_OFFSET_TABLE_+0x16e1>
    1bbe:	66 66 66 00 5f 5f    	data16 data16 data16 add %bl,0x5f(%edi)
    1bc4:	46                   	inc    %esi
    1bc5:	4c                   	dec    %esp
    1bc6:	54                   	push   %esp
    1bc7:	5f                   	pop    %edi
    1bc8:	45                   	inc    %ebp
    1bc9:	56                   	push   %esi
    1bca:	41                   	inc    %ecx
    1bcb:	4c                   	dec    %esp
    1bcc:	5f                   	pop    %edi
    1bcd:	4d                   	dec    %ebp
    1bce:	45                   	inc    %ebp
    1bcf:	54                   	push   %esp
    1bd0:	48                   	dec    %eax
    1bd1:	4f                   	dec    %edi
    1bd2:	44                   	inc    %esp
    1bd3:	5f                   	pop    %edi
    1bd4:	5f                   	pop    %edi
    1bd5:	20 32                	and    %dh,(%edx)
    1bd7:	00 5f 5f             	add    %bl,0x5f(%edi)
    1bda:	53                   	push   %ebx
    1bdb:	49                   	dec    %ecx
    1bdc:	5a                   	pop    %edx
    1bdd:	45                   	inc    %ebp
    1bde:	4f                   	dec    %edi
    1bdf:	46                   	inc    %esi
    1be0:	5f                   	pop    %edi
    1be1:	46                   	inc    %esi
    1be2:	4c                   	dec    %esp
    1be3:	4f                   	dec    %edi
    1be4:	41                   	inc    %ecx
    1be5:	54                   	push   %esp
    1be6:	5f                   	pop    %edi
    1be7:	5f                   	pop    %edi
    1be8:	20 34 00             	and    %dh,(%eax,%eax,1)
    1beb:	5f                   	pop    %edi
    1bec:	5f                   	pop    %edi
    1bed:	4c                   	dec    %esp
    1bee:	44                   	inc    %esp
    1bef:	42                   	inc    %edx
    1bf0:	4c                   	dec    %esp
    1bf1:	5f                   	pop    %edi
    1bf2:	44                   	inc    %esp
    1bf3:	45                   	inc    %ebp
    1bf4:	4e                   	dec    %esi
    1bf5:	4f                   	dec    %edi
    1bf6:	52                   	push   %edx
    1bf7:	4d                   	dec    %ebp
    1bf8:	5f                   	pop    %edi
    1bf9:	4d                   	dec    %ebp
    1bfa:	49                   	dec    %ecx
    1bfb:	4e                   	dec    %esi
    1bfc:	5f                   	pop    %edi
    1bfd:	5f                   	pop    %edi
    1bfe:	20 33                	and    %dh,(%ebx)
    1c00:	2e 36 34 35          	cs ss xor $0x35,%al
    1c04:	31 39                	xor    %edi,(%ecx)
    1c06:	39 35 33 31 38 38    	cmp    %esi,0x38383133
    1c0c:	32 34 37             	xor    (%edi,%esi,1),%dh
    1c0f:	34 36                	xor    $0x36,%al
    1c11:	30 32                	xor    %dh,(%edx)
    1c13:	35 32 38 34 30       	xor    $0x30343832,%eax
    1c18:	35 39 33 33 36       	xor    $0x36333339,%eax
    1c1d:	31 39                	xor    %edi,(%ecx)
    1c1f:	34 31                	xor    $0x31,%al
    1c21:	39 38                	cmp    %edi,(%eax)
    1c23:	32 65 2d             	xor    0x2d(%ebp),%ah
    1c26:	34 39                	xor    $0x39,%al
    1c28:	35 31 4c 00 5f       	xor    $0x5f004c31,%eax
    1c2d:	5f                   	pop    %edi
    1c2e:	44                   	inc    %esp
    1c2f:	42                   	inc    %edx
    1c30:	4c                   	dec    %esp
    1c31:	5f                   	pop    %edi
    1c32:	4d                   	dec    %ebp
    1c33:	41                   	inc    %ecx
    1c34:	58                   	pop    %eax
    1c35:	5f                   	pop    %edi
    1c36:	31 30                	xor    %esi,(%eax)
    1c38:	5f                   	pop    %edi
    1c39:	45                   	inc    %ebp
    1c3a:	58                   	pop    %eax
    1c3b:	50                   	push   %eax
    1c3c:	5f                   	pop    %edi
    1c3d:	5f                   	pop    %edi
    1c3e:	20 33                	and    %dh,(%ebx)
    1c40:	30 38                	xor    %bh,(%eax)
    1c42:	00 5f 5f             	add    %bl,0x5f(%edi)
    1c45:	46                   	inc    %esi
    1c46:	4c                   	dec    %esp
    1c47:	54                   	push   %esp
    1c48:	31 32                	xor    %esi,(%edx)
    1c4a:	38 5f 44             	cmp    %bl,0x44(%edi)
    1c4d:	45                   	inc    %ebp
    1c4e:	4e                   	dec    %esi
    1c4f:	4f                   	dec    %edi
    1c50:	52                   	push   %edx
    1c51:	4d                   	dec    %ebp
    1c52:	5f                   	pop    %edi
    1c53:	4d                   	dec    %ebp
    1c54:	49                   	dec    %ecx
    1c55:	4e                   	dec    %esi
    1c56:	5f                   	pop    %edi
    1c57:	5f                   	pop    %edi
    1c58:	20 36                	and    %dh,(%esi)
    1c5a:	2e 34 37             	cs xor $0x37,%al
    1c5d:	35 31 37 35 31       	xor    $0x31353731,%eax
    1c62:	31 39                	xor    %edi,(%ecx)
    1c64:	34 33                	xor    $0x33,%al
    1c66:	38 30                	cmp    %dh,(%eax)
    1c68:	32 35 31 31 30 39    	xor    0x39303131,%dh
    1c6e:	32 34 34             	xor    (%esp,%esi,1),%dh
    1c71:	33 38                	xor    (%eax),%edi
    1c73:	39 35 38 32 32 37    	cmp    %esi,0x37323238
    1c79:	36 34 36             	ss xor $0x36,%al
    1c7c:	35 35 65 2d 34       	xor    $0x342d6535,%eax
    1c81:	39 36                	cmp    %esi,(%esi)
    1c83:	36 46                	ss inc %esi
    1c85:	31 32                	xor    %esi,(%edx)
    1c87:	38 00                	cmp    %al,(%eax)
    1c89:	5f                   	pop    %edi
    1c8a:	5f                   	pop    %edi
    1c8b:	53                   	push   %ebx
    1c8c:	54                   	push   %esp
    1c8d:	44                   	inc    %esp
    1c8e:	43                   	inc    %ebx
    1c8f:	5f                   	pop    %edi
    1c90:	5f                   	pop    %edi
    1c91:	20 31                	and    %dh,(%ecx)
    1c93:	00 5f 5f             	add    %bl,0x5f(%edi)
    1c96:	4f                   	dec    %edi
    1c97:	52                   	push   %edx
    1c98:	44                   	inc    %esp
    1c99:	45                   	inc    %ebp
    1c9a:	52                   	push   %edx
    1c9b:	5f                   	pop    %edi
    1c9c:	50                   	push   %eax
    1c9d:	44                   	inc    %esp
    1c9e:	50                   	push   %eax
    1c9f:	5f                   	pop    %edi
    1ca0:	45                   	inc    %ebp
    1ca1:	4e                   	dec    %esi
    1ca2:	44                   	inc    %esp
    1ca3:	49                   	dec    %ecx
    1ca4:	41                   	inc    %ecx
    1ca5:	4e                   	dec    %esi
    1ca6:	5f                   	pop    %edi
    1ca7:	5f                   	pop    %edi
    1ca8:	20 33                	and    %dh,(%ebx)
    1caa:	34 31                	xor    $0x31,%al
    1cac:	32 00                	xor    (%eax),%al
    1cae:	5f                   	pop    %edi
    1caf:	5f                   	pop    %edi
    1cb0:	46                   	inc    %esi
    1cb1:	4c                   	dec    %esp
    1cb2:	54                   	push   %esp
    1cb3:	36 34 5f             	ss xor $0x5f,%al
    1cb6:	4e                   	dec    %esi
    1cb7:	4f                   	dec    %edi
    1cb8:	52                   	push   %edx
    1cb9:	4d                   	dec    %ebp
    1cba:	5f                   	pop    %edi
    1cbb:	4d                   	dec    %ebp
    1cbc:	41                   	inc    %ecx
    1cbd:	58                   	pop    %eax
    1cbe:	5f                   	pop    %edi
    1cbf:	5f                   	pop    %edi
    1cc0:	20 31                	and    %dh,(%ecx)
    1cc2:	2e 37                	cs aaa 
    1cc4:	39 37                	cmp    %esi,(%edi)
    1cc6:	36 39 33             	cmp    %esi,%ss:(%ebx)
    1cc9:	31 33                	xor    %esi,(%ebx)
    1ccb:	34 38                	xor    $0x38,%al
    1ccd:	36 32 33             	xor    %ss:(%ebx),%dh
    1cd0:	31 35 37 30 38 31    	xor    %esi,0x31383037
    1cd6:	34 35                	xor    $0x35,%al
    1cd8:	32 37                	xor    (%edi),%dh
    1cda:	34 32                	xor    $0x32,%al
    1cdc:	33 37                	xor    (%edi),%esi
    1cde:	33 31                	xor    (%ecx),%esi
    1ce0:	37                   	aaa    
    1ce1:	30 34 33             	xor    %dh,(%ebx,%esi,1)
    1ce4:	35 37 65 2b 33       	xor    $0x332b6537,%eax
    1ce9:	30 38                	xor    %bh,(%eax)
    1ceb:	46                   	inc    %esi
    1cec:	36 34 00             	ss xor $0x0,%al
    1cef:	5f                   	pop    %edi
    1cf0:	5f                   	pop    %edi
    1cf1:	4f                   	dec    %edi
    1cf2:	52                   	push   %edx
    1cf3:	44                   	inc    %esp
    1cf4:	45                   	inc    %ebp
    1cf5:	52                   	push   %edx
    1cf6:	5f                   	pop    %edi
    1cf7:	4c                   	dec    %esp
    1cf8:	49                   	dec    %ecx
    1cf9:	54                   	push   %esp
    1cfa:	54                   	push   %esp
    1cfb:	4c                   	dec    %esp
    1cfc:	45                   	inc    %ebp
    1cfd:	5f                   	pop    %edi
    1cfe:	45                   	inc    %ebp
    1cff:	4e                   	dec    %esi
    1d00:	44                   	inc    %esp
    1d01:	49                   	dec    %ecx
    1d02:	41                   	inc    %ecx
    1d03:	4e                   	dec    %esi
    1d04:	5f                   	pop    %edi
    1d05:	5f                   	pop    %edi
    1d06:	20 31                	and    %dh,(%ecx)
    1d08:	32 33                	xor    (%ebx),%dh
    1d0a:	34 00                	xor    $0x0,%al
    1d0c:	5f                   	pop    %edi
    1d0d:	5f                   	pop    %edi
    1d0e:	57                   	push   %edi
    1d0f:	49                   	dec    %ecx
    1d10:	4e                   	dec    %esi
    1d11:	54                   	push   %esp
    1d12:	5f                   	pop    %edi
    1d13:	54                   	push   %esp
    1d14:	59                   	pop    %ecx
    1d15:	50                   	push   %eax
    1d16:	45                   	inc    %ebp
    1d17:	5f                   	pop    %edi
    1d18:	5f                   	pop    %edi
    1d19:	20 75 6e             	and    %dh,0x6e(%ebp)
    1d1c:	73 69                	jae    1d87 <_GLOBAL_OFFSET_TABLE_+0x1873>
    1d1e:	67 6e                	outsb  %ds:(%si),(%dx)
    1d20:	65 64 20 69 6e       	gs and %ch,%fs:0x6e(%ecx)
    1d25:	74 00                	je     1d27 <_GLOBAL_OFFSET_TABLE_+0x1813>
    1d27:	5f                   	pop    %edi
    1d28:	5f                   	pop    %edi
    1d29:	49                   	dec    %ecx
    1d2a:	4e                   	dec    %esi
    1d2b:	54                   	push   %esp
    1d2c:	5f                   	pop    %edi
    1d2d:	4c                   	dec    %esp
    1d2e:	45                   	inc    %ebp
    1d2f:	41                   	inc    %ecx
    1d30:	53                   	push   %ebx
    1d31:	54                   	push   %esp
    1d32:	36 34 5f             	ss xor $0x5f,%al
    1d35:	54                   	push   %esp
    1d36:	59                   	pop    %ecx
    1d37:	50                   	push   %eax
    1d38:	45                   	inc    %ebp
    1d39:	5f                   	pop    %edi
    1d3a:	5f                   	pop    %edi
    1d3b:	20 6c 6f 6e          	and    %ch,0x6e(%edi,%ebp,2)
    1d3f:	67 20 6c 6f          	and    %ch,0x6f(%si)
    1d43:	6e                   	outsb  %ds:(%esi),(%dx)
    1d44:	67 20 69 6e          	and    %ch,0x6e(%bx,%di)
    1d48:	74 00                	je     1d4a <_GLOBAL_OFFSET_TABLE_+0x1836>
    1d4a:	5f                   	pop    %edi
    1d4b:	5f                   	pop    %edi
    1d4c:	41                   	inc    %ecx
    1d4d:	54                   	push   %esp
    1d4e:	4f                   	dec    %edi
    1d4f:	4d                   	dec    %ebp
    1d50:	49                   	dec    %ecx
    1d51:	43                   	inc    %ebx
    1d52:	5f                   	pop    %edi
    1d53:	52                   	push   %edx
    1d54:	45                   	inc    %ebp
    1d55:	4c                   	dec    %esp
    1d56:	41                   	inc    %ecx
    1d57:	58                   	pop    %eax
    1d58:	45                   	inc    %ebp
    1d59:	44                   	inc    %esp
    1d5a:	20 30                	and    %dh,(%eax)
    1d5c:	00 6f 73             	add    %ch,0x73(%edi)
    1d5f:	2e 63 00             	arpl   %ax,%cs:(%eax)
    1d62:	5f                   	pop    %edi
    1d63:	5f                   	pop    %edi
    1d64:	57                   	push   %edi
    1d65:	49                   	dec    %ecx
    1d66:	4e                   	dec    %esi
    1d67:	54                   	push   %esp
    1d68:	5f                   	pop    %edi
    1d69:	4d                   	dec    %ebp
    1d6a:	41                   	inc    %ecx
    1d6b:	58                   	pop    %eax
    1d6c:	5f                   	pop    %edi
    1d6d:	5f                   	pop    %edi
    1d6e:	20 30                	and    %dh,(%eax)
    1d70:	78 66                	js     1dd8 <_GLOBAL_OFFSET_TABLE_+0x18c4>
    1d72:	66 66 66 66 66 66 66 	data16 data16 data16 data16 data16 data16 push %bp
    1d79:	55 
    1d7a:	00 5f 5f             	add    %bl,0x5f(%edi)
    1d7d:	44                   	inc    %esp
    1d7e:	45                   	inc    %ebp
    1d7f:	43                   	inc    %ebx
    1d80:	33 32                	xor    (%edx),%esi
    1d82:	5f                   	pop    %edi
    1d83:	4d                   	dec    %ebp
    1d84:	41                   	inc    %ecx
    1d85:	4e                   	dec    %esi
    1d86:	54                   	push   %esp
    1d87:	5f                   	pop    %edi
    1d88:	44                   	inc    %esp
    1d89:	49                   	dec    %ecx
    1d8a:	47                   	inc    %edi
    1d8b:	5f                   	pop    %edi
    1d8c:	5f                   	pop    %edi
    1d8d:	20 37                	and    %dh,(%edi)
    1d8f:	00 5f 5f             	add    %bl,0x5f(%edi)
    1d92:	44                   	inc    %esp
    1d93:	45                   	inc    %ebp
    1d94:	43                   	inc    %ebx
    1d95:	36 34 5f             	ss xor $0x5f,%al
    1d98:	45                   	inc    %ebp
    1d99:	50                   	push   %eax
    1d9a:	53                   	push   %ebx
    1d9b:	49                   	dec    %ecx
    1d9c:	4c                   	dec    %esp
    1d9d:	4f                   	dec    %edi
    1d9e:	4e                   	dec    %esi
    1d9f:	5f                   	pop    %edi
    1da0:	5f                   	pop    %edi
    1da1:	20 31                	and    %dh,(%ecx)
    1da3:	45                   	inc    %ebp
    1da4:	2d 31 35 44 44       	sub    $0x44443531,%eax
    1da9:	00 5f 5f             	add    %bl,0x5f(%edi)
    1dac:	47                   	inc    %edi
    1dad:	43                   	inc    %ebx
    1dae:	43                   	inc    %ebx
    1daf:	5f                   	pop    %edi
    1db0:	49                   	dec    %ecx
    1db1:	45                   	inc    %ebp
    1db2:	43                   	inc    %ebx
    1db3:	5f                   	pop    %edi
    1db4:	35 35 39 20 32       	xor    $0x32203935,%eax
    1db9:	00 5f 5f             	add    %bl,0x5f(%edi)
    1dbc:	67 6e                	outsb  %ds:(%si),(%dx)
    1dbe:	75 5f                	jne    1e1f <_GLOBAL_OFFSET_TABLE_+0x190b>
    1dc0:	6c                   	insb   (%dx),%es:(%edi)
    1dc1:	69 6e 75 78 5f 5f 20 	imul   $0x205f5f78,0x75(%esi),%ebp
    1dc8:	31 00                	xor    %eax,(%eax)
    1dca:	5f                   	pop    %edi
    1dcb:	5f                   	pop    %edi
    1dcc:	46                   	inc    %esi
    1dcd:	4c                   	dec    %esp
    1dce:	54                   	push   %esp
    1dcf:	33 32                	xor    (%edx),%esi
    1dd1:	58                   	pop    %eax
    1dd2:	5f                   	pop    %edi
    1dd3:	44                   	inc    %esp
    1dd4:	45                   	inc    %ebp
    1dd5:	4e                   	dec    %esi
    1dd6:	4f                   	dec    %edi
    1dd7:	52                   	push   %edx
    1dd8:	4d                   	dec    %ebp
    1dd9:	5f                   	pop    %edi
    1dda:	4d                   	dec    %ebp
    1ddb:	49                   	dec    %ecx
    1ddc:	4e                   	dec    %esi
    1ddd:	5f                   	pop    %edi
    1dde:	5f                   	pop    %edi
    1ddf:	20 34 2e             	and    %dh,(%esi,%ebp,1)
    1de2:	39 34 30             	cmp    %esi,(%eax,%esi,1)
    1de5:	36 35 36 34 35 38    	ss xor $0x38353436,%eax
    1deb:	34 31                	xor    $0x31,%al
    1ded:	32 34 36             	xor    (%esi,%esi,1),%dh
    1df0:	35 34 34 31 37       	xor    $0x37313434,%eax
    1df5:	36 35 36 38 37 39    	ss xor $0x39373836,%eax
    1dfb:	32 38                	xor    (%eax),%bh
    1dfd:	36 38 32             	cmp    %dh,%ss:(%edx)
    1e00:	32 31                	xor    (%ecx),%dh
    1e02:	33 37                	xor    (%edi),%esi
    1e04:	32 65 2d             	xor    0x2d(%ebp),%ah
    1e07:	33 32                	xor    (%edx),%esi
    1e09:	34 46                	xor    $0x46,%al
    1e0b:	33 32                	xor    (%edx),%esi
    1e0d:	78 00                	js     1e0f <_GLOBAL_OFFSET_TABLE_+0x18fb>
    1e0f:	5f                   	pop    %edi
    1e10:	5f                   	pop    %edi
    1e11:	46                   	inc    %esi
    1e12:	4c                   	dec    %esp
    1e13:	54                   	push   %esp
    1e14:	36 34 58             	ss xor $0x58,%al
    1e17:	5f                   	pop    %edi
    1e18:	49                   	dec    %ecx
    1e19:	53                   	push   %ebx
    1e1a:	5f                   	pop    %edi
    1e1b:	49                   	dec    %ecx
    1e1c:	45                   	inc    %ebp
    1e1d:	43                   	inc    %ebx
    1e1e:	5f                   	pop    %edi
    1e1f:	36 30 35 35 39 5f 5f 	xor    %dh,%ss:0x5f5f3935
    1e26:	20 32                	and    %dh,(%edx)
    1e28:	00 5f 5f             	add    %bl,0x5f(%edi)
    1e2b:	46                   	inc    %esi
    1e2c:	4c                   	dec    %esp
    1e2d:	54                   	push   %esp
    1e2e:	36 34 58             	ss xor $0x58,%al
    1e31:	5f                   	pop    %edi
    1e32:	48                   	dec    %eax
    1e33:	41                   	inc    %ecx
    1e34:	53                   	push   %ebx
    1e35:	5f                   	pop    %edi
    1e36:	51                   	push   %ecx
    1e37:	55                   	push   %ebp
    1e38:	49                   	dec    %ecx
    1e39:	45                   	inc    %ebp
    1e3a:	54                   	push   %esp
    1e3b:	5f                   	pop    %edi
    1e3c:	4e                   	dec    %esi
    1e3d:	41                   	inc    %ecx
    1e3e:	4e                   	dec    %esi
    1e3f:	5f                   	pop    %edi
    1e40:	5f                   	pop    %edi
    1e41:	20 31                	and    %dh,(%ecx)
    1e43:	00 5f 5f             	add    %bl,0x5f(%edi)
    1e46:	53                   	push   %ebx
    1e47:	45                   	inc    %ebp
    1e48:	47                   	inc    %edi
    1e49:	5f                   	pop    %edi
    1e4a:	47                   	inc    %edi
    1e4b:	53                   	push   %ebx
    1e4c:	20 31                	and    %dh,(%ecx)
    1e4e:	00 5f 5f             	add    %bl,0x5f(%edi)
    1e51:	53                   	push   %ebx
    1e52:	49                   	dec    %ecx
    1e53:	47                   	inc    %edi
    1e54:	5f                   	pop    %edi
    1e55:	41                   	inc    %ecx
    1e56:	54                   	push   %esp
    1e57:	4f                   	dec    %edi
    1e58:	4d                   	dec    %ebp
    1e59:	49                   	dec    %ecx
    1e5a:	43                   	inc    %ebx
    1e5b:	5f                   	pop    %edi
    1e5c:	4d                   	dec    %ebp
    1e5d:	41                   	inc    %ecx
    1e5e:	58                   	pop    %eax
    1e5f:	5f                   	pop    %edi
    1e60:	5f                   	pop    %edi
    1e61:	20 30                	and    %dh,(%eax)
    1e63:	78 37                	js     1e9c <_GLOBAL_OFFSET_TABLE_+0x1988>
    1e65:	66 66 66 66 66 66 66 	data16 data16 data16 data16 data16 data16 data16 add %bl,0x5f(%edi)
    1e6c:	00 5f 5f 
    1e6f:	4c                   	dec    %esp
    1e70:	44                   	inc    %esp
    1e71:	42                   	inc    %edx
    1e72:	4c                   	dec    %esp
    1e73:	5f                   	pop    %edi
    1e74:	4e                   	dec    %esi
    1e75:	4f                   	dec    %edi
    1e76:	52                   	push   %edx
    1e77:	4d                   	dec    %ebp
    1e78:	5f                   	pop    %edi
    1e79:	4d                   	dec    %ebp
    1e7a:	41                   	inc    %ecx
    1e7b:	58                   	pop    %eax
    1e7c:	5f                   	pop    %edi
    1e7d:	5f                   	pop    %edi
    1e7e:	20 31                	and    %dh,(%ecx)
    1e80:	2e 31 38             	xor    %edi,%cs:(%eax)
    1e83:	39 37                	cmp    %esi,(%edi)
    1e85:	33 31                	xor    (%ecx),%esi
    1e87:	34 39                	xor    $0x39,%al
    1e89:	35 33 35 37 32       	xor    $0x32373533,%eax
    1e8e:	33 31                	xor    (%ecx),%esi
    1e90:	37                   	aaa    
    1e91:	36 35 30 32 31 32    	ss xor $0x32313230,%eax
    1e97:	36 33 38             	xor    %ss:(%eax),%edi
    1e9a:	35 33 30 33 30       	xor    $0x30333033,%eax
    1e9f:	39 37                	cmp    %esi,(%edi)
    1ea1:	30 32                	xor    %dh,(%edx)
    1ea3:	31 65 2b             	xor    %esp,0x2b(%ebp)
    1ea6:	34 39                	xor    $0x39,%al
    1ea8:	33 32                	xor    (%edx),%esi
    1eaa:	4c                   	dec    %esp
    1eab:	00 5f 5f             	add    %bl,0x5f(%edi)
    1eae:	44                   	inc    %esp
    1eaf:	42                   	inc    %edx
    1eb0:	4c                   	dec    %esp
    1eb1:	5f                   	pop    %edi
    1eb2:	4d                   	dec    %ebp
    1eb3:	49                   	dec    %ecx
    1eb4:	4e                   	dec    %esi
    1eb5:	5f                   	pop    %edi
    1eb6:	45                   	inc    %ebp
    1eb7:	58                   	pop    %eax
    1eb8:	50                   	push   %eax
    1eb9:	5f                   	pop    %edi
    1eba:	5f                   	pop    %edi
    1ebb:	20 28                	and    %ch,(%eax)
    1ebd:	2d 31 30 32 31       	sub    $0x31323031,%eax
    1ec2:	29 00                	sub    %eax,(%eax)
    1ec4:	5f                   	pop    %edi
    1ec5:	5f                   	pop    %edi
    1ec6:	70 65                	jo     1f2d <_GLOBAL_OFFSET_TABLE_+0x1a19>
    1ec8:	6e                   	outsb  %ds:(%esi),(%dx)
    1ec9:	74 69                	je     1f34 <_GLOBAL_OFFSET_TABLE_+0x1a20>
    1ecb:	75 6d                	jne    1f3a <_GLOBAL_OFFSET_TABLE_+0x1a26>
    1ecd:	70 72                	jo     1f41 <_GLOBAL_OFFSET_TABLE_+0x1a2d>
    1ecf:	6f                   	outsl  %ds:(%esi),(%dx)
    1ed0:	20 31                	and    %dh,(%ecx)
    1ed2:	00 5f 5f             	add    %bl,0x5f(%edi)
    1ed5:	46                   	inc    %esi
    1ed6:	4c                   	dec    %esp
    1ed7:	54                   	push   %esp
    1ed8:	33 32                	xor    (%edx),%esi
    1eda:	5f                   	pop    %edi
    1edb:	4d                   	dec    %ebp
    1edc:	49                   	dec    %ecx
    1edd:	4e                   	dec    %esi
    1ede:	5f                   	pop    %edi
    1edf:	31 30                	xor    %esi,(%eax)
    1ee1:	5f                   	pop    %edi
    1ee2:	45                   	inc    %ebp
    1ee3:	58                   	pop    %eax
    1ee4:	50                   	push   %eax
    1ee5:	5f                   	pop    %edi
    1ee6:	5f                   	pop    %edi
    1ee7:	20 28                	and    %ch,(%eax)
    1ee9:	2d 33 37 29 00       	sub    $0x293733,%eax
    1eee:	5f                   	pop    %edi
    1eef:	5f                   	pop    %edi
    1ef0:	46                   	inc    %esi
    1ef1:	4c                   	dec    %esp
    1ef2:	54                   	push   %esp
    1ef3:	31 32                	xor    %esi,(%edx)
    1ef5:	38 5f 4d             	cmp    %bl,0x4d(%edi)
    1ef8:	41                   	inc    %ecx
    1ef9:	4e                   	dec    %esi
    1efa:	54                   	push   %esp
    1efb:	5f                   	pop    %edi
    1efc:	44                   	inc    %esp
    1efd:	49                   	dec    %ecx
    1efe:	47                   	inc    %edi
    1eff:	5f                   	pop    %edi
    1f00:	5f                   	pop    %edi
    1f01:	20 31                	and    %dh,(%ecx)
    1f03:	31 33                	xor    %esi,(%ebx)
    1f05:	00 5f 5f             	add    %bl,0x5f(%edi)
    1f08:	55                   	push   %ebp
    1f09:	49                   	dec    %ecx
    1f0a:	4e                   	dec    %esi
    1f0b:	54                   	push   %esp
    1f0c:	50                   	push   %eax
    1f0d:	54                   	push   %esp
    1f0e:	52                   	push   %edx
    1f0f:	5f                   	pop    %edi
    1f10:	54                   	push   %esp
    1f11:	59                   	pop    %ecx
    1f12:	50                   	push   %eax
    1f13:	45                   	inc    %ebp
    1f14:	5f                   	pop    %edi
    1f15:	5f                   	pop    %edi
    1f16:	20 75 6e             	and    %dh,0x6e(%ebp)
    1f19:	73 69                	jae    1f84 <_GLOBAL_OFFSET_TABLE_+0x1a70>
    1f1b:	67 6e                	outsb  %ds:(%si),(%dx)
    1f1d:	65 64 20 69 6e       	gs and %ch,%fs:0x6e(%ecx)
    1f22:	74 00                	je     1f24 <_GLOBAL_OFFSET_TABLE_+0x1a10>
    1f24:	5f                   	pop    %edi
    1f25:	5f                   	pop    %edi
    1f26:	46                   	inc    %esi
    1f27:	4c                   	dec    %esp
    1f28:	54                   	push   %esp
    1f29:	33 32                	xor    (%edx),%esi
    1f2b:	5f                   	pop    %edi
    1f2c:	48                   	dec    %eax
    1f2d:	41                   	inc    %ecx
    1f2e:	53                   	push   %ebx
    1f2f:	5f                   	pop    %edi
    1f30:	44                   	inc    %esp
    1f31:	45                   	inc    %ebp
    1f32:	4e                   	dec    %esi
    1f33:	4f                   	dec    %edi
    1f34:	52                   	push   %edx
    1f35:	4d                   	dec    %ebp
    1f36:	5f                   	pop    %edi
    1f37:	5f                   	pop    %edi
    1f38:	20 31                	and    %dh,(%ecx)
    1f3a:	00 5f 5f             	add    %bl,0x5f(%edi)
    1f3d:	55                   	push   %ebp
    1f3e:	49                   	dec    %ecx
    1f3f:	4e                   	dec    %esi
    1f40:	54                   	push   %esp
    1f41:	36 34 5f             	ss xor $0x5f,%al
    1f44:	43                   	inc    %ebx
    1f45:	28 63 29             	sub    %ah,0x29(%ebx)
    1f48:	20 63 20             	and    %ah,0x20(%ebx)
    1f4b:	23 23                	and    (%ebx),%esp
    1f4d:	20 55 4c             	and    %dl,0x4c(%ebp)
    1f50:	4c                   	dec    %esp
    1f51:	00 5f 5f             	add    %bl,0x5f(%edi)
    1f54:	46                   	inc    %esi
    1f55:	4c                   	dec    %esp
    1f56:	54                   	push   %esp
    1f57:	36 34 5f             	ss xor $0x5f,%al
    1f5a:	4d                   	dec    %ebp
    1f5b:	41                   	inc    %ecx
    1f5c:	4e                   	dec    %esi
    1f5d:	54                   	push   %esp
    1f5e:	5f                   	pop    %edi
    1f5f:	44                   	inc    %esp
    1f60:	49                   	dec    %ecx
    1f61:	47                   	inc    %edi
    1f62:	5f                   	pop    %edi
    1f63:	5f                   	pop    %edi
    1f64:	20 35 33 00 5f 5f    	and    %dh,0x5f5f0033
    1f6a:	46                   	inc    %esi
    1f6b:	4c                   	dec    %esp
    1f6c:	54                   	push   %esp
    1f6d:	5f                   	pop    %edi
    1f6e:	48                   	dec    %eax
    1f6f:	41                   	inc    %ecx
    1f70:	53                   	push   %ebx
    1f71:	5f                   	pop    %edi
    1f72:	49                   	dec    %ecx
    1f73:	4e                   	dec    %esi
    1f74:	46                   	inc    %esi
    1f75:	49                   	dec    %ecx
    1f76:	4e                   	dec    %esi
    1f77:	49                   	dec    %ecx
    1f78:	54                   	push   %esp
    1f79:	59                   	pop    %ecx
    1f7a:	5f                   	pop    %edi
    1f7b:	5f                   	pop    %edi
    1f7c:	20 31                	and    %dh,(%ecx)
    1f7e:	00 5f 5f             	add    %bl,0x5f(%edi)
    1f81:	46                   	inc    %esi
    1f82:	4c                   	dec    %esp
    1f83:	54                   	push   %esp
    1f84:	36 34 5f             	ss xor $0x5f,%al
    1f87:	44                   	inc    %esp
    1f88:	45                   	inc    %ebp
    1f89:	43                   	inc    %ebx
    1f8a:	49                   	dec    %ecx
    1f8b:	4d                   	dec    %ebp
    1f8c:	41                   	inc    %ecx
    1f8d:	4c                   	dec    %esp
    1f8e:	5f                   	pop    %edi
    1f8f:	44                   	inc    %esp
    1f90:	49                   	dec    %ecx
    1f91:	47                   	inc    %edi
    1f92:	5f                   	pop    %edi
    1f93:	5f                   	pop    %edi
    1f94:	20 31                	and    %dh,(%ecx)
    1f96:	37                   	aaa    
    1f97:	00 5f 5f             	add    %bl,0x5f(%edi)
    1f9a:	47                   	inc    %edi
    1f9b:	4e                   	dec    %esi
    1f9c:	55                   	push   %ebp
    1f9d:	43                   	inc    %ebx
    1f9e:	5f                   	pop    %edi
    1f9f:	57                   	push   %edi
    1fa0:	49                   	dec    %ecx
    1fa1:	44                   	inc    %esp
    1fa2:	45                   	inc    %ebp
    1fa3:	5f                   	pop    %edi
    1fa4:	45                   	inc    %ebp
    1fa5:	58                   	pop    %eax
    1fa6:	45                   	inc    %ebp
    1fa7:	43                   	inc    %ebx
    1fa8:	55                   	push   %ebp
    1fa9:	54                   	push   %esp
    1faa:	49                   	dec    %ecx
    1fab:	4f                   	dec    %edi
    1fac:	4e                   	dec    %esi
    1fad:	5f                   	pop    %edi
    1fae:	43                   	inc    %ebx
    1faf:	48                   	dec    %eax
    1fb0:	41                   	inc    %ecx
    1fb1:	52                   	push   %edx
    1fb2:	53                   	push   %ebx
    1fb3:	45                   	inc    %ebp
    1fb4:	54                   	push   %esp
    1fb5:	5f                   	pop    %edi
    1fb6:	4e                   	dec    %esi
    1fb7:	41                   	inc    %ecx
    1fb8:	4d                   	dec    %ebp
    1fb9:	45                   	inc    %ebp
    1fba:	20 22                	and    %ah,(%edx)
    1fbc:	55                   	push   %ebp
    1fbd:	54                   	push   %esp
    1fbe:	46                   	inc    %esi
    1fbf:	2d 33 32 4c 45       	sub    $0x454c3233,%eax
    1fc4:	22 00                	and    (%eax),%al
    1fc6:	5f                   	pop    %edi
    1fc7:	5f                   	pop    %edi
    1fc8:	4c                   	dec    %esp
    1fc9:	4f                   	dec    %edi
    1fca:	4e                   	dec    %esi
    1fcb:	47                   	inc    %edi
    1fcc:	5f                   	pop    %edi
    1fcd:	4c                   	dec    %esp
    1fce:	4f                   	dec    %edi
    1fcf:	4e                   	dec    %esi
    1fd0:	47                   	inc    %edi
    1fd1:	5f                   	pop    %edi
    1fd2:	57                   	push   %edi
    1fd3:	49                   	dec    %ecx
    1fd4:	44                   	inc    %esp
    1fd5:	54                   	push   %esp
    1fd6:	48                   	dec    %eax
    1fd7:	5f                   	pop    %edi
    1fd8:	5f                   	pop    %edi
    1fd9:	20 36                	and    %dh,(%esi)
    1fdb:	34 00                	xor    $0x0,%al
    1fdd:	5f                   	pop    %edi
    1fde:	5f                   	pop    %edi
    1fdf:	46                   	inc    %esi
    1fe0:	4c                   	dec    %esp
    1fe1:	54                   	push   %esp
    1fe2:	36 34 5f             	ss xor $0x5f,%al
    1fe5:	44                   	inc    %esp
    1fe6:	45                   	inc    %ebp
    1fe7:	4e                   	dec    %esi
    1fe8:	4f                   	dec    %edi
    1fe9:	52                   	push   %edx
    1fea:	4d                   	dec    %ebp
    1feb:	5f                   	pop    %edi
    1fec:	4d                   	dec    %ebp
    1fed:	49                   	dec    %ecx
    1fee:	4e                   	dec    %esi
    1fef:	5f                   	pop    %edi
    1ff0:	5f                   	pop    %edi
    1ff1:	20 34 2e             	and    %dh,(%esi,%ebp,1)
    1ff4:	39 34 30             	cmp    %esi,(%eax,%esi,1)
    1ff7:	36 35 36 34 35 38    	ss xor $0x38353436,%eax
    1ffd:	34 31                	xor    $0x31,%al
    1fff:	32 34 36             	xor    (%esi,%esi,1),%dh
    2002:	35 34 34 31 37       	xor    $0x37313434,%eax
    2007:	36 35 36 38 37 39    	ss xor $0x39373836,%eax
    200d:	32 38                	xor    (%eax),%bh
    200f:	36 38 32             	cmp    %dh,%ss:(%edx)
    2012:	32 31                	xor    (%ecx),%dh
    2014:	33 37                	xor    (%edi),%esi
    2016:	32 65 2d             	xor    0x2d(%ebp),%ah
    2019:	33 32                	xor    (%edx),%esi
    201b:	34 46                	xor    $0x46,%al
    201d:	36 34 00             	ss xor $0x0,%al
    2020:	5f                   	pop    %edi
    2021:	5f                   	pop    %edi
    2022:	57                   	push   %edi
    2023:	43                   	inc    %ebx
    2024:	48                   	dec    %eax
    2025:	41                   	inc    %ecx
    2026:	52                   	push   %edx
    2027:	5f                   	pop    %edi
    2028:	4d                   	dec    %ebp
    2029:	41                   	inc    %ecx
    202a:	58                   	pop    %eax
    202b:	5f                   	pop    %edi
    202c:	5f                   	pop    %edi
    202d:	20 30                	and    %dh,(%eax)
    202f:	78 37                	js     2068 <_GLOBAL_OFFSET_TABLE_+0x1b54>
    2031:	66 66 66 66 66 66 66 	data16 data16 data16 data16 data16 data16 dec %sp
    2038:	4c 
    2039:	00 5f 5f             	add    %bl,0x5f(%edi)
    203c:	55                   	push   %ebp
    203d:	49                   	dec    %ecx
    203e:	4e                   	dec    %esi
    203f:	54                   	push   %esp
    2040:	5f                   	pop    %edi
    2041:	46                   	inc    %esi
    2042:	41                   	inc    %ecx
    2043:	53                   	push   %ebx
    2044:	54                   	push   %esp
    2045:	33 32                	xor    (%edx),%esi
    2047:	5f                   	pop    %edi
    2048:	4d                   	dec    %ebp
    2049:	41                   	inc    %ecx
    204a:	58                   	pop    %eax
    204b:	5f                   	pop    %edi
    204c:	5f                   	pop    %edi
    204d:	20 30                	and    %dh,(%eax)
    204f:	78 66                	js     20b7 <_GLOBAL_OFFSET_TABLE_+0x1ba3>
    2051:	66 66 66 66 66 66 66 	data16 data16 data16 data16 data16 data16 push %bp
    2058:	55 
    2059:	00 5f 5f             	add    %bl,0x5f(%edi)
    205c:	46                   	inc    %esi
    205d:	4c                   	dec    %esp
    205e:	54                   	push   %esp
    205f:	36 34 58             	ss xor $0x58,%al
    2062:	5f                   	pop    %edi
    2063:	4d                   	dec    %ebp
    2064:	41                   	inc    %ecx
    2065:	58                   	pop    %eax
    2066:	5f                   	pop    %edi
    2067:	5f                   	pop    %edi
    2068:	20 31                	and    %dh,(%ecx)
    206a:	2e 31 38             	xor    %edi,%cs:(%eax)
    206d:	39 37                	cmp    %esi,(%edi)
    206f:	33 31                	xor    (%ecx),%esi
    2071:	34 39                	xor    $0x39,%al
    2073:	35 33 35 37 32       	xor    $0x32373533,%eax
    2078:	33 31                	xor    (%ecx),%esi
    207a:	37                   	aaa    
    207b:	36 35 30 32 31 32    	ss xor $0x32313230,%eax
    2081:	36 33 38             	xor    %ss:(%eax),%edi
    2084:	35 33 30 33 30       	xor    $0x30333033,%eax
    2089:	39 37                	cmp    %esi,(%edi)
    208b:	30 32                	xor    %dh,(%edx)
    208d:	31 65 2b             	xor    %esp,0x2b(%ebp)
    2090:	34 39                	xor    $0x39,%al
    2092:	33 32                	xor    (%edx),%esi
    2094:	46                   	inc    %esi
    2095:	36 34 78             	ss xor $0x78,%al
    2098:	00 5f 5f             	add    %bl,0x5f(%edi)
    209b:	53                   	push   %ebx
    209c:	54                   	push   %esp
    209d:	44                   	inc    %esp
    209e:	43                   	inc    %ebx
    209f:	5f                   	pop    %edi
    20a0:	55                   	push   %ebp
    20a1:	54                   	push   %esp
    20a2:	46                   	inc    %esi
    20a3:	5f                   	pop    %edi
    20a4:	31 36                	xor    %esi,(%esi)
    20a6:	5f                   	pop    %edi
    20a7:	5f                   	pop    %edi
    20a8:	20 31                	and    %dh,(%ecx)
    20aa:	00 5f 5f             	add    %bl,0x5f(%edi)
    20ad:	47                   	inc    %edi
    20ae:	4e                   	dec    %esi
    20af:	55                   	push   %ebp
    20b0:	43                   	inc    %ebx
    20b1:	5f                   	pop    %edi
    20b2:	45                   	inc    %ebp
    20b3:	58                   	pop    %eax
    20b4:	45                   	inc    %ebp
    20b5:	43                   	inc    %ebx
    20b6:	55                   	push   %ebp
    20b7:	54                   	push   %esp
    20b8:	49                   	dec    %ecx
    20b9:	4f                   	dec    %edi
    20ba:	4e                   	dec    %esi
    20bb:	5f                   	pop    %edi
    20bc:	43                   	inc    %ebx
    20bd:	48                   	dec    %eax
    20be:	41                   	inc    %ecx
    20bf:	52                   	push   %edx
    20c0:	53                   	push   %ebx
    20c1:	45                   	inc    %ebp
    20c2:	54                   	push   %esp
    20c3:	5f                   	pop    %edi
    20c4:	4e                   	dec    %esi
    20c5:	41                   	inc    %ecx
    20c6:	4d                   	dec    %ebp
    20c7:	45                   	inc    %ebp
    20c8:	20 22                	and    %ah,(%edx)
    20ca:	55                   	push   %ebp
    20cb:	54                   	push   %esp
    20cc:	46                   	inc    %esi
    20cd:	2d 38 22 00 5f       	sub    $0x5f002238,%eax
    20d2:	5f                   	pop    %edi
    20d3:	50                   	push   %eax
    20d4:	54                   	push   %esp
    20d5:	52                   	push   %edx
    20d6:	44                   	inc    %esp
    20d7:	49                   	dec    %ecx
    20d8:	46                   	inc    %esi
    20d9:	46                   	inc    %esi
    20da:	5f                   	pop    %edi
    20db:	54                   	push   %esp
    20dc:	59                   	pop    %ecx
    20dd:	50                   	push   %eax
    20de:	45                   	inc    %ebp
    20df:	5f                   	pop    %edi
    20e0:	5f                   	pop    %edi
    20e1:	20 69 6e             	and    %ch,0x6e(%ecx)
    20e4:	74 00                	je     20e6 <_GLOBAL_OFFSET_TABLE_+0x1bd2>
    20e6:	5f                   	pop    %edi
    20e7:	5f                   	pop    %edi
    20e8:	4c                   	dec    %esp
    20e9:	44                   	inc    %esp
    20ea:	42                   	inc    %edx
    20eb:	4c                   	dec    %esp
    20ec:	5f                   	pop    %edi
    20ed:	48                   	dec    %eax
    20ee:	41                   	inc    %ecx
    20ef:	53                   	push   %ebx
    20f0:	5f                   	pop    %edi
    20f1:	44                   	inc    %esp
    20f2:	45                   	inc    %ebp
    20f3:	4e                   	dec    %esi
    20f4:	4f                   	dec    %edi
    20f5:	52                   	push   %edx
    20f6:	4d                   	dec    %ebp
    20f7:	5f                   	pop    %edi
    20f8:	5f                   	pop    %edi
    20f9:	20 31                	and    %dh,(%ecx)
    20fb:	00 5f 5f             	add    %bl,0x5f(%edi)
    20fe:	46                   	inc    %esi
    20ff:	4c                   	dec    %esp
    2100:	54                   	push   %esp
    2101:	36 34 5f             	ss xor $0x5f,%al
    2104:	4d                   	dec    %ebp
    2105:	49                   	dec    %ecx
    2106:	4e                   	dec    %esi
    2107:	5f                   	pop    %edi
    2108:	45                   	inc    %ebp
    2109:	58                   	pop    %eax
    210a:	50                   	push   %eax
    210b:	5f                   	pop    %edi
    210c:	5f                   	pop    %edi
    210d:	20 28                	and    %ch,(%eax)
    210f:	2d 31 30 32 31       	sub    $0x31323031,%eax
    2114:	29 00                	sub    %eax,(%eax)
    2116:	5f                   	pop    %edi
    2117:	5f                   	pop    %edi
    2118:	53                   	push   %ebx
    2119:	49                   	dec    %ecx
    211a:	5a                   	pop    %edx
    211b:	45                   	inc    %ebp
    211c:	4f                   	dec    %edi
    211d:	46                   	inc    %esi
    211e:	5f                   	pop    %edi
    211f:	46                   	inc    %esi
    2120:	4c                   	dec    %esp
    2121:	4f                   	dec    %edi
    2122:	41                   	inc    %ecx
    2123:	54                   	push   %esp
    2124:	38 30                	cmp    %dh,(%eax)
    2126:	5f                   	pop    %edi
    2127:	5f                   	pop    %edi
    2128:	20 31                	and    %dh,(%ecx)
    212a:	32 00                	xor    (%eax),%al
    212c:	5f                   	pop    %edi
    212d:	5f                   	pop    %edi
    212e:	47                   	inc    %edi
    212f:	43                   	inc    %ebx
    2130:	43                   	inc    %ebx
    2131:	5f                   	pop    %edi
    2132:	41                   	inc    %ecx
    2133:	54                   	push   %esp
    2134:	4f                   	dec    %edi
    2135:	4d                   	dec    %ebp
    2136:	49                   	dec    %ecx
    2137:	43                   	inc    %ebx
    2138:	5f                   	pop    %edi
    2139:	43                   	inc    %ebx
    213a:	48                   	dec    %eax
    213b:	41                   	inc    %ecx
    213c:	52                   	push   %edx
    213d:	31 36                	xor    %esi,(%esi)
    213f:	5f                   	pop    %edi
    2140:	54                   	push   %esp
    2141:	5f                   	pop    %edi
    2142:	4c                   	dec    %esp
    2143:	4f                   	dec    %edi
    2144:	43                   	inc    %ebx
    2145:	4b                   	dec    %ebx
    2146:	5f                   	pop    %edi
    2147:	46                   	inc    %esi
    2148:	52                   	push   %edx
    2149:	45                   	inc    %ebp
    214a:	45                   	inc    %ebp
    214b:	20 32                	and    %dh,(%edx)
    214d:	00 5f 5f             	add    %bl,0x5f(%edi)
    2150:	49                   	dec    %ecx
    2151:	4e                   	dec    %esi
    2152:	54                   	push   %esp
    2153:	5f                   	pop    %edi
    2154:	46                   	inc    %esi
    2155:	41                   	inc    %ecx
    2156:	53                   	push   %ebx
    2157:	54                   	push   %esp
    2158:	33 32                	xor    (%edx),%esi
    215a:	5f                   	pop    %edi
    215b:	4d                   	dec    %ebp
    215c:	41                   	inc    %ecx
    215d:	58                   	pop    %eax
    215e:	5f                   	pop    %edi
    215f:	5f                   	pop    %edi
    2160:	20 30                	and    %dh,(%eax)
    2162:	78 37                	js     219b <_GLOBAL_OFFSET_TABLE_+0x1c87>
    2164:	66 66 66 66 66 66 66 	data16 data16 data16 data16 data16 data16 data16 add %bl,0x5f(%edi)
    216b:	00 5f 5f 
    216e:	52                   	push   %edx
    216f:	45                   	inc    %ebp
    2170:	47                   	inc    %edi
    2171:	49                   	dec    %ecx
    2172:	53                   	push   %ebx
    2173:	54                   	push   %esp
    2174:	45                   	inc    %ebp
    2175:	52                   	push   %edx
    2176:	5f                   	pop    %edi
    2177:	50                   	push   %eax
    2178:	52                   	push   %edx
    2179:	45                   	inc    %ebp
    217a:	46                   	inc    %esi
    217b:	49                   	dec    %ecx
    217c:	58                   	pop    %eax
    217d:	5f                   	pop    %edi
    217e:	5f                   	pop    %edi
    217f:	20 00                	and    %al,(%eax)
    2181:	5f                   	pop    %edi
    2182:	5f                   	pop    %edi
    2183:	41                   	inc    %ecx
    2184:	54                   	push   %esp
    2185:	4f                   	dec    %edi
    2186:	4d                   	dec    %ebp
    2187:	49                   	dec    %ecx
    2188:	43                   	inc    %ebx
    2189:	5f                   	pop    %edi
    218a:	43                   	inc    %ebx
    218b:	4f                   	dec    %edi
    218c:	4e                   	dec    %esi
    218d:	53                   	push   %ebx
    218e:	55                   	push   %ebp
    218f:	4d                   	dec    %ebp
    2190:	45                   	inc    %ebp
    2191:	20 31                	and    %dh,(%ecx)
    2193:	00 5f 5f             	add    %bl,0x5f(%edi)
    2196:	48                   	dec    %eax
    2197:	41                   	inc    %ecx
    2198:	56                   	push   %esi
    2199:	45                   	inc    %ebp
    219a:	5f                   	pop    %edi
    219b:	53                   	push   %ebx
    219c:	50                   	push   %eax
    219d:	45                   	inc    %ebp
    219e:	43                   	inc    %ebx
    219f:	55                   	push   %ebp
    21a0:	4c                   	dec    %esp
    21a1:	41                   	inc    %ecx
    21a2:	54                   	push   %esp
    21a3:	49                   	dec    %ecx
    21a4:	4f                   	dec    %edi
    21a5:	4e                   	dec    %esi
    21a6:	5f                   	pop    %edi
    21a7:	53                   	push   %ebx
    21a8:	41                   	inc    %ecx
    21a9:	46                   	inc    %esi
    21aa:	45                   	inc    %ebp
    21ab:	5f                   	pop    %edi
    21ac:	56                   	push   %esi
    21ad:	41                   	inc    %ecx
    21ae:	4c                   	dec    %esp
    21af:	55                   	push   %ebp
    21b0:	45                   	inc    %ebp
    21b1:	20 31                	and    %dh,(%ecx)
    21b3:	00 5f 5f             	add    %bl,0x5f(%edi)
    21b6:	44                   	inc    %esp
    21b7:	45                   	inc    %ebp
    21b8:	43                   	inc    %ebx
    21b9:	31 32                	xor    %esi,(%edx)
    21bb:	38 5f 53             	cmp    %bl,0x53(%edi)
    21be:	55                   	push   %ebp
    21bf:	42                   	inc    %edx
    21c0:	4e                   	dec    %esi
    21c1:	4f                   	dec    %edi
    21c2:	52                   	push   %edx
    21c3:	4d                   	dec    %ebp
    21c4:	41                   	inc    %ecx
    21c5:	4c                   	dec    %esp
    21c6:	5f                   	pop    %edi
    21c7:	4d                   	dec    %ebp
    21c8:	49                   	dec    %ecx
    21c9:	4e                   	dec    %esi
    21ca:	5f                   	pop    %edi
    21cb:	5f                   	pop    %edi
    21cc:	20 30                	and    %dh,(%eax)
    21ce:	2e 30 30             	xor    %dh,%cs:(%eax)
    21d1:	30 30                	xor    %dh,(%eax)
    21d3:	30 30                	xor    %dh,(%eax)
    21d5:	30 30                	xor    %dh,(%eax)
    21d7:	30 30                	xor    %dh,(%eax)
    21d9:	30 30                	xor    %dh,(%eax)
    21db:	30 30                	xor    %dh,(%eax)
    21dd:	30 30                	xor    %dh,(%eax)
    21df:	30 30                	xor    %dh,(%eax)
    21e1:	30 30                	xor    %dh,(%eax)
    21e3:	30 30                	xor    %dh,(%eax)
    21e5:	30 30                	xor    %dh,(%eax)
    21e7:	30 30                	xor    %dh,(%eax)
    21e9:	30 30                	xor    %dh,(%eax)
    21eb:	30 30                	xor    %dh,(%eax)
    21ed:	30 30                	xor    %dh,(%eax)
    21ef:	31 45 2d             	xor    %eax,0x2d(%ebp)
    21f2:	36 31 34 33          	xor    %esi,%ss:(%ebx,%esi,1)
    21f6:	44                   	inc    %esp
    21f7:	4c                   	dec    %esp
    21f8:	00 5f 5f             	add    %bl,0x5f(%edi)
    21fb:	53                   	push   %ebx
    21fc:	54                   	push   %esp
    21fd:	44                   	inc    %esp
    21fe:	43                   	inc    %ebx
    21ff:	5f                   	pop    %edi
    2200:	55                   	push   %ebp
    2201:	54                   	push   %esp
    2202:	46                   	inc    %esi
    2203:	5f                   	pop    %edi
    2204:	33 32                	xor    (%edx),%esi
    2206:	5f                   	pop    %edi
    2207:	5f                   	pop    %edi
    2208:	20 31                	and    %dh,(%ecx)
    220a:	00 5f 5f             	add    %bl,0x5f(%edi)
    220d:	55                   	push   %ebp
    220e:	49                   	dec    %ecx
    220f:	4e                   	dec    %esi
    2210:	54                   	push   %esp
    2211:	31 36                	xor    %esi,(%esi)
    2213:	5f                   	pop    %edi
    2214:	54                   	push   %esp
    2215:	59                   	pop    %ecx
    2216:	50                   	push   %eax
    2217:	45                   	inc    %ebp
    2218:	5f                   	pop    %edi
    2219:	5f                   	pop    %edi
    221a:	20 73 68             	and    %dh,0x68(%ebx)
    221d:	6f                   	outsl  %ds:(%esi),(%dx)
    221e:	72 74                	jb     2294 <_GLOBAL_OFFSET_TABLE_+0x1d80>
    2220:	20 75 6e             	and    %dh,0x6e(%ebp)
    2223:	73 69                	jae    228e <_GLOBAL_OFFSET_TABLE_+0x1d7a>
    2225:	67 6e                	outsb  %ds:(%si),(%dx)
    2227:	65 64 20 69 6e       	gs and %ch,%fs:0x6e(%ecx)
    222c:	74 00                	je     222e <_GLOBAL_OFFSET_TABLE_+0x1d1a>
    222e:	5f                   	pop    %edi
    222f:	5f                   	pop    %edi
    2230:	46                   	inc    %esi
    2231:	4c                   	dec    %esp
    2232:	54                   	push   %esp
    2233:	36 34 58             	ss xor $0x58,%al
    2236:	5f                   	pop    %edi
    2237:	4d                   	dec    %ebp
    2238:	41                   	inc    %ecx
    2239:	58                   	pop    %eax
    223a:	5f                   	pop    %edi
    223b:	31 30                	xor    %esi,(%eax)
    223d:	5f                   	pop    %edi
    223e:	45                   	inc    %ebp
    223f:	58                   	pop    %eax
    2240:	50                   	push   %eax
    2241:	5f                   	pop    %edi
    2242:	5f                   	pop    %edi
    2243:	20 34 39             	and    %dh,(%ecx,%edi,1)
    2246:	33 32                	xor    (%edx),%esi
    2248:	00 5f 5f             	add    %bl,0x5f(%edi)
    224b:	55                   	push   %ebp
    224c:	49                   	dec    %ecx
    224d:	4e                   	dec    %esi
    224e:	54                   	push   %esp
    224f:	33 32                	xor    (%edx),%esi
    2251:	5f                   	pop    %edi
    2252:	43                   	inc    %ebx
    2253:	28 63 29             	sub    %ah,0x29(%ebx)
    2256:	20 63 20             	and    %ah,0x20(%ebx)
    2259:	23 23                	and    (%ebx),%esp
    225b:	20 55 00             	and    %dl,0x0(%ebp)
    225e:	5f                   	pop    %edi
    225f:	5f                   	pop    %edi
    2260:	46                   	inc    %esi
    2261:	4c                   	dec    %esp
    2262:	54                   	push   %esp
    2263:	36 34 58             	ss xor $0x58,%al
    2266:	5f                   	pop    %edi
    2267:	4d                   	dec    %ebp
    2268:	49                   	dec    %ecx
    2269:	4e                   	dec    %esi
    226a:	5f                   	pop    %edi
    226b:	45                   	inc    %ebp
    226c:	58                   	pop    %eax
    226d:	50                   	push   %eax
    226e:	5f                   	pop    %edi
    226f:	5f                   	pop    %edi
    2270:	20 28                	and    %ch,(%eax)
    2272:	2d 31 36 33 38       	sub    $0x38333631,%eax
    2277:	31 29                	xor    %ebp,(%ecx)
    2279:	00 5f 5f             	add    %bl,0x5f(%edi)
    227c:	46                   	inc    %esi
    227d:	4c                   	dec    %esp
    227e:	54                   	push   %esp
    227f:	33 32                	xor    (%edx),%esi
    2281:	5f                   	pop    %edi
    2282:	48                   	dec    %eax
    2283:	41                   	inc    %ecx
    2284:	53                   	push   %ebx
    2285:	5f                   	pop    %edi
    2286:	51                   	push   %ecx
    2287:	55                   	push   %ebp
    2288:	49                   	dec    %ecx
    2289:	45                   	inc    %ebp
    228a:	54                   	push   %esp
    228b:	5f                   	pop    %edi
    228c:	4e                   	dec    %esi
    228d:	41                   	inc    %ecx
    228e:	4e                   	dec    %esi
    228f:	5f                   	pop    %edi
    2290:	5f                   	pop    %edi
    2291:	20 31                	and    %dh,(%ecx)
    2293:	00 5f 5f             	add    %bl,0x5f(%edi)
    2296:	53                   	push   %ebx
    2297:	45                   	inc    %ebp
    2298:	47                   	inc    %edi
    2299:	5f                   	pop    %edi
    229a:	46                   	inc    %esi
    229b:	53                   	push   %ebx
    229c:	20 31                	and    %dh,(%ecx)
    229e:	00 5f 5f             	add    %bl,0x5f(%edi)
    22a1:	44                   	inc    %esp
    22a2:	45                   	inc    %ebp
    22a3:	43                   	inc    %ebx
    22a4:	33 32                	xor    (%edx),%esi
    22a6:	5f                   	pop    %edi
    22a7:	53                   	push   %ebx
    22a8:	55                   	push   %ebp
    22a9:	42                   	inc    %edx
    22aa:	4e                   	dec    %esi
    22ab:	4f                   	dec    %edi
    22ac:	52                   	push   %edx
    22ad:	4d                   	dec    %ebp
    22ae:	41                   	inc    %ecx
    22af:	4c                   	dec    %esp
    22b0:	5f                   	pop    %edi
    22b1:	4d                   	dec    %ebp
    22b2:	49                   	dec    %ecx
    22b3:	4e                   	dec    %esi
    22b4:	5f                   	pop    %edi
    22b5:	5f                   	pop    %edi
    22b6:	20 30                	and    %dh,(%eax)
    22b8:	2e 30 30             	xor    %dh,%cs:(%eax)
    22bb:	30 30                	xor    %dh,(%eax)
    22bd:	30 31                	xor    %dh,(%ecx)
    22bf:	45                   	inc    %ebp
    22c0:	2d 39 35 44 46       	sub    $0x46443539,%eax
    22c5:	00 5f 5f             	add    %bl,0x5f(%edi)
    22c8:	46                   	inc    %esi
    22c9:	4c                   	dec    %esp
    22ca:	54                   	push   %esp
    22cb:	31 32                	xor    %esi,(%edx)
    22cd:	38 5f 4d             	cmp    %bl,0x4d(%edi)
    22d0:	41                   	inc    %ecx
    22d1:	58                   	pop    %eax
    22d2:	5f                   	pop    %edi
    22d3:	5f                   	pop    %edi
    22d4:	20 31                	and    %dh,(%ecx)
    22d6:	2e 31 38             	xor    %edi,%cs:(%eax)
    22d9:	39 37                	cmp    %esi,(%edi)
    22db:	33 31                	xor    (%ecx),%esi
    22dd:	34 39                	xor    $0x39,%al
    22df:	35 33 35 37 32       	xor    $0x32373533,%eax
    22e4:	33 31                	xor    (%ecx),%esi
    22e6:	37                   	aaa    
    22e7:	36 35 30 38 35 37    	ss xor $0x37353830,%eax
    22ed:	35 39 33 32 36       	xor    $0x36323339,%eax
    22f2:	36 32 38             	xor    %ss:(%eax),%bh
    22f5:	30 30                	xor    %dh,(%eax)
    22f7:	37                   	aaa    
    22f8:	30 32                	xor    %dh,(%edx)
    22fa:	65 2b 34 39          	sub    %gs:(%ecx,%edi,1),%esi
    22fe:	33 32                	xor    (%edx),%esi
    2300:	46                   	inc    %esi
    2301:	31 32                	xor    %esi,(%edx)
    2303:	38 00                	cmp    %al,(%eax)
    2305:	5f                   	pop    %edi
    2306:	5f                   	pop    %edi
    2307:	44                   	inc    %esp
    2308:	45                   	inc    %ebp
    2309:	43                   	inc    %ebx
    230a:	36 34 5f             	ss xor $0x5f,%al
    230d:	4d                   	dec    %ebp
    230e:	49                   	dec    %ecx
    230f:	4e                   	dec    %esi
    2310:	5f                   	pop    %edi
    2311:	5f                   	pop    %edi
    2312:	20 31                	and    %dh,(%ecx)
    2314:	45                   	inc    %ebp
    2315:	2d 33 38 33 44       	sub    $0x44333833,%eax
    231a:	44                   	inc    %esp
    231b:	00 5f 5f             	add    %bl,0x5f(%edi)
    231e:	49                   	dec    %ecx
    231f:	4e                   	dec    %esi
    2320:	54                   	push   %esp
    2321:	5f                   	pop    %edi
    2322:	46                   	inc    %esi
    2323:	41                   	inc    %ecx
    2324:	53                   	push   %ebx
    2325:	54                   	push   %esp
    2326:	31 36                	xor    %esi,(%esi)
    2328:	5f                   	pop    %edi
    2329:	4d                   	dec    %ebp
    232a:	41                   	inc    %ecx
    232b:	58                   	pop    %eax
    232c:	5f                   	pop    %edi
    232d:	5f                   	pop    %edi
    232e:	20 30                	and    %dh,(%eax)
    2330:	78 37                	js     2369 <_GLOBAL_OFFSET_TABLE_+0x1e55>
    2332:	66 66 66 66 66 66 66 	data16 data16 data16 data16 data16 data16 data16 add %bl,0x5f(%edi)
    2339:	00 5f 5f 
    233c:	47                   	inc    %edi
    233d:	58                   	pop    %eax
    233e:	58                   	pop    %eax
    233f:	5f                   	pop    %edi
    2340:	41                   	inc    %ecx
    2341:	42                   	inc    %edx
    2342:	49                   	dec    %ecx
    2343:	5f                   	pop    %edi
    2344:	56                   	push   %esi
    2345:	45                   	inc    %ebp
    2346:	52                   	push   %edx
    2347:	53                   	push   %ebx
    2348:	49                   	dec    %ecx
    2349:	4f                   	dec    %edi
    234a:	4e                   	dec    %esi
    234b:	20 31                	and    %dh,(%ecx)
    234d:	30 31                	xor    %dh,(%ecx)
    234f:	36 00 5f 5f          	add    %bl,%ss:0x5f(%edi)
    2353:	53                   	push   %ebx
    2354:	49                   	dec    %ecx
    2355:	47                   	inc    %edi
    2356:	5f                   	pop    %edi
    2357:	41                   	inc    %ecx
    2358:	54                   	push   %esp
    2359:	4f                   	dec    %edi
    235a:	4d                   	dec    %ebp
    235b:	49                   	dec    %ecx
    235c:	43                   	inc    %ebx
    235d:	5f                   	pop    %edi
    235e:	4d                   	dec    %ebp
    235f:	49                   	dec    %ecx
    2360:	4e                   	dec    %esi
    2361:	5f                   	pop    %edi
    2362:	5f                   	pop    %edi
    2363:	20 28                	and    %ch,(%eax)
    2365:	2d 5f 5f 53 49       	sub    $0x49535f5f,%eax
    236a:	47                   	inc    %edi
    236b:	5f                   	pop    %edi
    236c:	41                   	inc    %ecx
    236d:	54                   	push   %esp
    236e:	4f                   	dec    %edi
    236f:	4d                   	dec    %ebp
    2370:	49                   	dec    %ecx
    2371:	43                   	inc    %ebx
    2372:	5f                   	pop    %edi
    2373:	4d                   	dec    %ebp
    2374:	41                   	inc    %ecx
    2375:	58                   	pop    %eax
    2376:	5f                   	pop    %edi
    2377:	5f                   	pop    %edi
    2378:	20 2d 20 31 29 00    	and    %ch,0x293120
    237e:	5f                   	pop    %edi
    237f:	5f                   	pop    %edi
    2380:	49                   	dec    %ecx
    2381:	4e                   	dec    %esi
    2382:	54                   	push   %esp
    2383:	5f                   	pop    %edi
    2384:	46                   	inc    %esi
    2385:	41                   	inc    %ecx
    2386:	53                   	push   %ebx
    2387:	54                   	push   %esp
    2388:	36 34 5f             	ss xor $0x5f,%al
    238b:	57                   	push   %edi
    238c:	49                   	dec    %ecx
    238d:	44                   	inc    %esp
    238e:	54                   	push   %esp
    238f:	48                   	dec    %eax
    2390:	5f                   	pop    %edi
    2391:	5f                   	pop    %edi
    2392:	20 36                	and    %dh,(%esi)
    2394:	34 00                	xor    $0x0,%al
    2396:	5f                   	pop    %edi
    2397:	5f                   	pop    %edi
    2398:	44                   	inc    %esp
    2399:	45                   	inc    %ebp
    239a:	43                   	inc    %ebx
    239b:	33 32                	xor    (%edx),%esi
    239d:	5f                   	pop    %edi
    239e:	45                   	inc    %ebp
    239f:	50                   	push   %eax
    23a0:	53                   	push   %ebx
    23a1:	49                   	dec    %ecx
    23a2:	4c                   	dec    %esp
    23a3:	4f                   	dec    %edi
    23a4:	4e                   	dec    %esi
    23a5:	5f                   	pop    %edi
    23a6:	5f                   	pop    %edi
    23a7:	20 31                	and    %dh,(%ecx)
    23a9:	45                   	inc    %ebp
    23aa:	2d 36 44 46 00       	sub    $0x464436,%eax
    23af:	5f                   	pop    %edi
    23b0:	49                   	dec    %ecx
    23b1:	4c                   	dec    %esp
    23b2:	50                   	push   %eax
    23b3:	33 32                	xor    (%edx),%esi
    23b5:	20 31                	and    %dh,(%ecx)
    23b7:	00 5f 5f             	add    %bl,0x5f(%edi)
    23ba:	49                   	dec    %ecx
    23bb:	4e                   	dec    %esi
    23bc:	54                   	push   %esp
    23bd:	5f                   	pop    %edi
    23be:	46                   	inc    %esi
    23bf:	41                   	inc    %ecx
    23c0:	53                   	push   %ebx
    23c1:	54                   	push   %esp
    23c2:	33 32                	xor    (%edx),%esi
    23c4:	5f                   	pop    %edi
    23c5:	54                   	push   %esp
    23c6:	59                   	pop    %ecx
    23c7:	50                   	push   %eax
    23c8:	45                   	inc    %ebp
    23c9:	5f                   	pop    %edi
    23ca:	5f                   	pop    %edi
    23cb:	20 69 6e             	and    %ch,0x6e(%ecx)
    23ce:	74 00                	je     23d0 <_GLOBAL_OFFSET_TABLE_+0x1ebc>
    23d0:	5f                   	pop    %edi
    23d1:	5f                   	pop    %edi
    23d2:	46                   	inc    %esi
    23d3:	4c                   	dec    %esp
    23d4:	54                   	push   %esp
    23d5:	33 32                	xor    (%edx),%esi
    23d7:	5f                   	pop    %edi
    23d8:	44                   	inc    %esp
    23d9:	45                   	inc    %ebp
    23da:	4e                   	dec    %esi
    23db:	4f                   	dec    %edi
    23dc:	52                   	push   %edx
    23dd:	4d                   	dec    %ebp
    23de:	5f                   	pop    %edi
    23df:	4d                   	dec    %ebp
    23e0:	49                   	dec    %ecx
    23e1:	4e                   	dec    %esi
    23e2:	5f                   	pop    %edi
    23e3:	5f                   	pop    %edi
    23e4:	20 31                	and    %dh,(%ecx)
    23e6:	2e 34 30             	cs xor $0x30,%al
    23e9:	31 32                	xor    %esi,(%edx)
    23eb:	39 38                	cmp    %edi,(%eax)
    23ed:	34 36                	xor    $0x36,%al
    23ef:	34 33                	xor    $0x33,%al
    23f1:	32 34 38             	xor    (%eax,%edi,1),%dh
    23f4:	31 37                	xor    %esi,(%edi)
    23f6:	30 37                	xor    %dh,(%edi)
    23f8:	30 39                	xor    %bh,(%ecx)
    23fa:	32 33                	xor    (%ebx),%dh
    23fc:	37                   	aaa    
    23fd:	32 39                	xor    (%ecx),%bh
    23ff:	35 38 33 32 38       	xor    $0x38323338,%eax
    2404:	39 39                	cmp    %edi,(%ecx)
    2406:	31 36                	xor    %esi,(%esi)
    2408:	31 33                	xor    %esi,(%ebx)
    240a:	65 2d 34 35 46 33    	gs sub $0x33463534,%eax
    2410:	32 00                	xor    (%eax),%al
    2412:	5f                   	pop    %edi
    2413:	5f                   	pop    %edi
    2414:	55                   	push   %ebp
    2415:	49                   	dec    %ecx
    2416:	4e                   	dec    %esi
    2417:	54                   	push   %esp
    2418:	5f                   	pop    %edi
    2419:	46                   	inc    %esi
    241a:	41                   	inc    %ecx
    241b:	53                   	push   %ebx
    241c:	54                   	push   %esp
    241d:	31 36                	xor    %esi,(%esi)
    241f:	5f                   	pop    %edi
    2420:	54                   	push   %esp
    2421:	59                   	pop    %ecx
    2422:	50                   	push   %eax
    2423:	45                   	inc    %ebp
    2424:	5f                   	pop    %edi
    2425:	5f                   	pop    %edi
    2426:	20 75 6e             	and    %dh,0x6e(%ebp)
    2429:	73 69                	jae    2494 <_GLOBAL_OFFSET_TABLE_+0x1f80>
    242b:	67 6e                	outsb  %ds:(%si),(%dx)
    242d:	65 64 20 69 6e       	gs and %ch,%fs:0x6e(%ecx)
    2432:	74 00                	je     2434 <_GLOBAL_OFFSET_TABLE_+0x1f20>
    2434:	5f                   	pop    %edi
    2435:	5f                   	pop    %edi
    2436:	46                   	inc    %esi
    2437:	4c                   	dec    %esp
    2438:	54                   	push   %esp
    2439:	36 34 5f             	ss xor $0x5f,%al
    243c:	44                   	inc    %esp
    243d:	49                   	dec    %ecx
    243e:	47                   	inc    %edi
    243f:	5f                   	pop    %edi
    2440:	5f                   	pop    %edi
    2441:	20 31                	and    %dh,(%ecx)
    2443:	35 00 5f 5f 4c       	xor    $0x4c5f5f00,%eax
    2448:	44                   	inc    %esp
    2449:	42                   	inc    %edx
    244a:	4c                   	dec    %esp
    244b:	5f                   	pop    %edi
    244c:	4d                   	dec    %ebp
    244d:	41                   	inc    %ecx
    244e:	4e                   	dec    %esi
    244f:	54                   	push   %esp
    2450:	5f                   	pop    %edi
    2451:	44                   	inc    %esp
    2452:	49                   	dec    %ecx
    2453:	47                   	inc    %edi
    2454:	5f                   	pop    %edi
    2455:	5f                   	pop    %edi
    2456:	20 36                	and    %dh,(%esi)
    2458:	34 00                	xor    $0x0,%al
    245a:	5f                   	pop    %edi
    245b:	5f                   	pop    %edi
    245c:	47                   	inc    %edi
    245d:	43                   	inc    %ebx
    245e:	43                   	inc    %ebx
    245f:	5f                   	pop    %edi
    2460:	41                   	inc    %ecx
    2461:	54                   	push   %esp
    2462:	4f                   	dec    %edi
    2463:	4d                   	dec    %ebp
    2464:	49                   	dec    %ecx
    2465:	43                   	inc    %ebx
    2466:	5f                   	pop    %edi
    2467:	4c                   	dec    %esp
    2468:	4f                   	dec    %edi
    2469:	4e                   	dec    %esi
    246a:	47                   	inc    %edi
    246b:	5f                   	pop    %edi
    246c:	4c                   	dec    %esp
    246d:	4f                   	dec    %edi
    246e:	43                   	inc    %ebx
    246f:	4b                   	dec    %ebx
    2470:	5f                   	pop    %edi
    2471:	46                   	inc    %esi
    2472:	52                   	push   %edx
    2473:	45                   	inc    %ebp
    2474:	45                   	inc    %ebp
    2475:	20 32                	and    %dh,(%edx)
    2477:	00 5f 5f             	add    %bl,0x5f(%edi)
    247a:	44                   	inc    %esp
    247b:	42                   	inc    %edx
    247c:	4c                   	dec    %esp
    247d:	5f                   	pop    %edi
    247e:	4d                   	dec    %ebp
    247f:	41                   	inc    %ecx
    2480:	58                   	pop    %eax
    2481:	5f                   	pop    %edi
    2482:	5f                   	pop    %edi
    2483:	20 28                	and    %ch,(%eax)
    2485:	28 64 6f 75          	sub    %ah,0x75(%edi,%ebp,2)
    2489:	62 6c 65 29          	bound  %ebp,0x29(%ebp,%eiz,2)
    248d:	31 2e                	xor    %ebp,(%esi)
    248f:	37                   	aaa    
    2490:	39 37                	cmp    %esi,(%edi)
    2492:	36 39 33             	cmp    %esi,%ss:(%ebx)
    2495:	31 33                	xor    %esi,(%ebx)
    2497:	34 38                	xor    $0x38,%al
    2499:	36 32 33             	xor    %ss:(%ebx),%dh
    249c:	31 35 37 30 38 31    	xor    %esi,0x31383037
    24a2:	34 35                	xor    $0x35,%al
    24a4:	32 37                	xor    (%edi),%dh
    24a6:	34 32                	xor    $0x32,%al
    24a8:	33 37                	xor    (%edi),%esi
    24aa:	33 31                	xor    (%ecx),%esi
    24ac:	37                   	aaa    
    24ad:	30 34 33             	xor    %dh,(%ebx,%esi,1)
    24b0:	35 37 65 2b 33       	xor    $0x332b6537,%eax
    24b5:	30 38                	xor    %bh,(%eax)
    24b7:	4c                   	dec    %esp
    24b8:	29 00                	sub    %eax,(%eax)
    24ba:	5f                   	pop    %edi
    24bb:	5f                   	pop    %edi
    24bc:	49                   	dec    %ecx
    24bd:	4e                   	dec    %esi
    24be:	54                   	push   %esp
    24bf:	38 5f 4d             	cmp    %bl,0x4d(%edi)
    24c2:	41                   	inc    %ecx
    24c3:	58                   	pop    %eax
    24c4:	5f                   	pop    %edi
    24c5:	5f                   	pop    %edi
    24c6:	20 30                	and    %dh,(%eax)
    24c8:	78 37                	js     2501 <_GLOBAL_OFFSET_TABLE_+0x1fed>
    24ca:	66 00 5f 5f          	data16 add %bl,0x5f(%edi)
    24ce:	55                   	push   %ebp
    24cf:	49                   	dec    %ecx
    24d0:	4e                   	dec    %esi
    24d1:	54                   	push   %esp
    24d2:	5f                   	pop    %edi
    24d3:	46                   	inc    %esi
    24d4:	41                   	inc    %ecx
    24d5:	53                   	push   %ebx
    24d6:	54                   	push   %esp
    24d7:	38 5f 4d             	cmp    %bl,0x4d(%edi)
    24da:	41                   	inc    %ecx
    24db:	58                   	pop    %eax
    24dc:	5f                   	pop    %edi
    24dd:	5f                   	pop    %edi
    24de:	20 30                	and    %dh,(%eax)
    24e0:	78 66                	js     2548 <_GLOBAL_OFFSET_TABLE_+0x2034>
    24e2:	66 00 5f 5f          	data16 add %bl,0x5f(%edi)
    24e6:	46                   	inc    %esi
    24e7:	4c                   	dec    %esp
    24e8:	54                   	push   %esp
    24e9:	36 34 58             	ss xor $0x58,%al
    24ec:	5f                   	pop    %edi
    24ed:	45                   	inc    %ebp
    24ee:	50                   	push   %eax
    24ef:	53                   	push   %ebx
    24f0:	49                   	dec    %ecx
    24f1:	4c                   	dec    %esp
    24f2:	4f                   	dec    %edi
    24f3:	4e                   	dec    %esi
    24f4:	5f                   	pop    %edi
    24f5:	5f                   	pop    %edi
    24f6:	20 31                	and    %dh,(%ecx)
    24f8:	2e 30 38             	xor    %bh,%cs:(%eax)
    24fb:	34 32                	xor    $0x32,%al
    24fd:	30 32                	xor    %dh,(%edx)
    24ff:	31 37                	xor    %esi,(%edi)
    2501:	32 34 38             	xor    (%eax,%edi,1),%dh
    2504:	35 35 30 34 34       	xor    $0x34343035,%eax
    2509:	33 34 30             	xor    (%eax,%esi,1),%esi
    250c:	30 37                	xor    %dh,(%edi)
    250e:	34 35                	xor    $0x35,%al
    2510:	32 38                	xor    (%eax),%bh
    2512:	30 30                	xor    %dh,(%eax)
    2514:	38 36                	cmp    %dh,(%esi)
    2516:	39 39                	cmp    %edi,(%ecx)
    2518:	34 31                	xor    $0x31,%al
    251a:	37                   	aaa    
    251b:	31 65 2d             	xor    %esp,0x2d(%ebp)
    251e:	31 39                	xor    %edi,(%ecx)
    2520:	46                   	inc    %esi
    2521:	36 34 78             	ss xor $0x78,%al
    2524:	00 5f 5f             	add    %bl,0x5f(%edi)
    2527:	46                   	inc    %esi
    2528:	4c                   	dec    %esp
    2529:	54                   	push   %esp
    252a:	5f                   	pop    %edi
    252b:	4d                   	dec    %ebp
    252c:	49                   	dec    %ecx
    252d:	4e                   	dec    %esi
    252e:	5f                   	pop    %edi
    252f:	31 30                	xor    %esi,(%eax)
    2531:	5f                   	pop    %edi
    2532:	45                   	inc    %ebp
    2533:	58                   	pop    %eax
    2534:	50                   	push   %eax
    2535:	5f                   	pop    %edi
    2536:	5f                   	pop    %edi
    2537:	20 28                	and    %ch,(%eax)
    2539:	2d 33 37 29 00       	sub    $0x293733,%eax
    253e:	5f                   	pop    %edi
    253f:	5f                   	pop    %edi
    2540:	47                   	inc    %edi
    2541:	43                   	inc    %ebx
    2542:	43                   	inc    %ebx
    2543:	5f                   	pop    %edi
    2544:	41                   	inc    %ecx
    2545:	54                   	push   %esp
    2546:	4f                   	dec    %edi
    2547:	4d                   	dec    %ebp
    2548:	49                   	dec    %ecx
    2549:	43                   	inc    %ebx
    254a:	5f                   	pop    %edi
    254b:	54                   	push   %esp
    254c:	45                   	inc    %ebp
    254d:	53                   	push   %ebx
    254e:	54                   	push   %esp
    254f:	5f                   	pop    %edi
    2550:	41                   	inc    %ecx
    2551:	4e                   	dec    %esi
    2552:	44                   	inc    %esp
    2553:	5f                   	pop    %edi
    2554:	53                   	push   %ebx
    2555:	45                   	inc    %ebp
    2556:	54                   	push   %esp
    2557:	5f                   	pop    %edi
    2558:	54                   	push   %esp
    2559:	52                   	push   %edx
    255a:	55                   	push   %ebp
    255b:	45                   	inc    %ebp
    255c:	56                   	push   %esi
    255d:	41                   	inc    %ecx
    255e:	4c                   	dec    %esp
    255f:	20 31                	and    %dh,(%ecx)
    2561:	00 5f 5f             	add    %bl,0x5f(%edi)
    2564:	46                   	inc    %esi
    2565:	4c                   	dec    %esp
    2566:	54                   	push   %esp
    2567:	31 32                	xor    %esi,(%edx)
    2569:	38 5f 4d             	cmp    %bl,0x4d(%edi)
    256c:	41                   	inc    %ecx
    256d:	58                   	pop    %eax
    256e:	5f                   	pop    %edi
    256f:	31 30                	xor    %esi,(%eax)
    2571:	5f                   	pop    %edi
    2572:	45                   	inc    %ebp
    2573:	58                   	pop    %eax
    2574:	50                   	push   %eax
    2575:	5f                   	pop    %edi
    2576:	5f                   	pop    %edi
    2577:	20 34 39             	and    %dh,(%ecx,%edi,1)
    257a:	33 32                	xor    (%edx),%esi
    257c:	00 5f 5f             	add    %bl,0x5f(%edi)
    257f:	41                   	inc    %ecx
    2580:	54                   	push   %esp
    2581:	4f                   	dec    %edi
    2582:	4d                   	dec    %ebp
    2583:	49                   	dec    %ecx
    2584:	43                   	inc    %ebx
    2585:	5f                   	pop    %edi
    2586:	41                   	inc    %ecx
    2587:	43                   	inc    %ebx
    2588:	51                   	push   %ecx
    2589:	5f                   	pop    %edi
    258a:	52                   	push   %edx
    258b:	45                   	inc    %ebp
    258c:	4c                   	dec    %esp
    258d:	20 34 00             	and    %dh,(%eax,%eax,1)
    2590:	5f                   	pop    %edi
    2591:	5f                   	pop    %edi
    2592:	46                   	inc    %esi
    2593:	4c                   	dec    %esp
    2594:	54                   	push   %esp
    2595:	31 32                	xor    %esi,(%edx)
    2597:	38 5f 45             	cmp    %bl,0x45(%edi)
    259a:	50                   	push   %eax
    259b:	53                   	push   %ebx
    259c:	49                   	dec    %ecx
    259d:	4c                   	dec    %esp
    259e:	4f                   	dec    %edi
    259f:	4e                   	dec    %esi
    25a0:	5f                   	pop    %edi
    25a1:	5f                   	pop    %edi
    25a2:	20 31                	and    %dh,(%ecx)
    25a4:	2e 39 32             	cmp    %esi,%cs:(%edx)
    25a7:	35 39 32 39 39       	xor    $0x39393239,%eax
    25ac:	34 34                	xor    $0x34,%al
    25ae:	33 38                	xor    (%eax),%edi
    25b0:	37                   	aaa    
    25b1:	32 33                	xor    (%ebx),%dh
    25b3:	35 38 35 33 30       	xor    $0x30333538,%eax
    25b8:	35 35 39 37 37       	xor    $0x37373935,%eax
    25bd:	39 34 32             	cmp    %esi,(%edx,%esi,1)
    25c0:	35 38 34 39 32       	xor    $0x32393438,%eax
    25c5:	37                   	aaa    
    25c6:	33 32                	xor    (%edx),%esi
    25c8:	65 2d 33 34 46 31    	gs sub $0x31463433,%eax
    25ce:	32 38                	xor    (%eax),%bh
    25d0:	00 5f 5f             	add    %bl,0x5f(%edi)
    25d3:	46                   	inc    %esi
    25d4:	4c                   	dec    %esp
    25d5:	54                   	push   %esp
    25d6:	31 32                	xor    %esi,(%edx)
    25d8:	38 5f 4e             	cmp    %bl,0x4e(%edi)
    25db:	4f                   	dec    %edi
    25dc:	52                   	push   %edx
    25dd:	4d                   	dec    %ebp
    25de:	5f                   	pop    %edi
    25df:	4d                   	dec    %ebp
    25e0:	41                   	inc    %ecx
    25e1:	58                   	pop    %eax
    25e2:	5f                   	pop    %edi
    25e3:	5f                   	pop    %edi
    25e4:	20 31                	and    %dh,(%ecx)
    25e6:	2e 31 38             	xor    %edi,%cs:(%eax)
    25e9:	39 37                	cmp    %esi,(%edi)
    25eb:	33 31                	xor    (%ecx),%esi
    25ed:	34 39                	xor    $0x39,%al
    25ef:	35 33 35 37 32       	xor    $0x32373533,%eax
    25f4:	33 31                	xor    (%ecx),%esi
    25f6:	37                   	aaa    
    25f7:	36 35 30 38 35 37    	ss xor $0x37353830,%eax
    25fd:	35 39 33 32 36       	xor    $0x36323339,%eax
    2602:	36 32 38             	xor    %ss:(%eax),%bh
    2605:	30 30                	xor    %dh,(%eax)
    2607:	37                   	aaa    
    2608:	30 32                	xor    %dh,(%edx)
    260a:	65 2b 34 39          	sub    %gs:(%ecx,%edi,1),%esi
    260e:	33 32                	xor    (%edx),%esi
    2610:	46                   	inc    %esi
    2611:	31 32                	xor    %esi,(%edx)
    2613:	38 00                	cmp    %al,(%eax)
    2615:	5f                   	pop    %edi
    2616:	5f                   	pop    %edi
    2617:	47                   	inc    %edi
    2618:	43                   	inc    %ebx
    2619:	43                   	inc    %ebx
    261a:	5f                   	pop    %edi
    261b:	48                   	dec    %eax
    261c:	41                   	inc    %ecx
    261d:	56                   	push   %esi
    261e:	45                   	inc    %ebp
    261f:	5f                   	pop    %edi
    2620:	53                   	push   %ebx
    2621:	59                   	pop    %ecx
    2622:	4e                   	dec    %esi
    2623:	43                   	inc    %ebx
    2624:	5f                   	pop    %edi
    2625:	43                   	inc    %ebx
    2626:	4f                   	dec    %edi
    2627:	4d                   	dec    %ebp
    2628:	50                   	push   %eax
    2629:	41                   	inc    %ecx
    262a:	52                   	push   %edx
    262b:	45                   	inc    %ebp
    262c:	5f                   	pop    %edi
    262d:	41                   	inc    %ecx
    262e:	4e                   	dec    %esi
    262f:	44                   	inc    %esp
    2630:	5f                   	pop    %edi
    2631:	53                   	push   %ebx
    2632:	57                   	push   %edi
    2633:	41                   	inc    %ecx
    2634:	50                   	push   %eax
    2635:	5f                   	pop    %edi
    2636:	38 20                	cmp    %ah,(%eax)
    2638:	31 00                	xor    %eax,(%eax)
    263a:	5f                   	pop    %edi
    263b:	5f                   	pop    %edi
    263c:	49                   	dec    %ecx
    263d:	4e                   	dec    %esi
    263e:	54                   	push   %esp
    263f:	5f                   	pop    %edi
    2640:	46                   	inc    %esi
    2641:	41                   	inc    %ecx
    2642:	53                   	push   %ebx
    2643:	54                   	push   %esp
    2644:	38 5f 57             	cmp    %bl,0x57(%edi)
    2647:	49                   	dec    %ecx
    2648:	44                   	inc    %esp
    2649:	54                   	push   %esp
    264a:	48                   	dec    %eax
    264b:	5f                   	pop    %edi
    264c:	5f                   	pop    %edi
    264d:	20 38                	and    %bh,(%eax)
    264f:	00 5f 5f             	add    %bl,0x5f(%edi)
    2652:	4c                   	dec    %esp
    2653:	4f                   	dec    %edi
    2654:	4e                   	dec    %esi
    2655:	47                   	inc    %edi
    2656:	5f                   	pop    %edi
    2657:	4d                   	dec    %ebp
    2658:	41                   	inc    %ecx
    2659:	58                   	pop    %eax
    265a:	5f                   	pop    %edi
    265b:	5f                   	pop    %edi
    265c:	20 30                	and    %dh,(%eax)
    265e:	78 37                	js     2697 <_GLOBAL_OFFSET_TABLE_+0x2183>
    2660:	66 66 66 66 66 66 66 	data16 data16 data16 data16 data16 data16 dec %sp
    2667:	4c 
    2668:	00 5f 5f             	add    %bl,0x5f(%edi)
    266b:	50                   	push   %eax
    266c:	54                   	push   %esp
    266d:	52                   	push   %edx
    266e:	44                   	inc    %esp
    266f:	49                   	dec    %ecx
    2670:	46                   	inc    %esi
    2671:	46                   	inc    %esi
    2672:	5f                   	pop    %edi
    2673:	57                   	push   %edi
    2674:	49                   	dec    %ecx
    2675:	44                   	inc    %esp
    2676:	54                   	push   %esp
    2677:	48                   	dec    %eax
    2678:	5f                   	pop    %edi
    2679:	5f                   	pop    %edi
    267a:	20 33                	and    %dh,(%ebx)
    267c:	32 00                	xor    (%eax),%al
    267e:	5f                   	pop    %edi
    267f:	5f                   	pop    %edi
    2680:	44                   	inc    %esp
    2681:	45                   	inc    %ebp
    2682:	43                   	inc    %ebx
    2683:	31 32                	xor    %esi,(%edx)
    2685:	38 5f 4d             	cmp    %bl,0x4d(%edi)
    2688:	41                   	inc    %ecx
    2689:	58                   	pop    %eax
    268a:	5f                   	pop    %edi
    268b:	45                   	inc    %ebp
    268c:	58                   	pop    %eax
    268d:	50                   	push   %eax
    268e:	5f                   	pop    %edi
    268f:	5f                   	pop    %edi
    2690:	20 36                	and    %dh,(%esi)
    2692:	31 34 35 00 5f 5f 46 	xor    %esi,0x465f5f00(,%esi,1)
    2699:	4c                   	dec    %esp
    269a:	54                   	push   %esp
    269b:	36 34 58             	ss xor $0x58,%al
    269e:	5f                   	pop    %edi
    269f:	4d                   	dec    %ebp
    26a0:	41                   	inc    %ecx
    26a1:	58                   	pop    %eax
    26a2:	5f                   	pop    %edi
    26a3:	45                   	inc    %ebp
    26a4:	58                   	pop    %eax
    26a5:	50                   	push   %eax
    26a6:	5f                   	pop    %edi
    26a7:	5f                   	pop    %edi
    26a8:	20 31                	and    %dh,(%ecx)
    26aa:	36 33 38             	xor    %ss:(%eax),%edi
    26ad:	34 00                	xor    $0x0,%al
    26af:	5f                   	pop    %edi
    26b0:	5f                   	pop    %edi
    26b1:	46                   	inc    %esi
    26b2:	4c                   	dec    %esp
    26b3:	54                   	push   %esp
    26b4:	33 32                	xor    (%edx),%esi
    26b6:	5f                   	pop    %edi
    26b7:	4d                   	dec    %ebp
    26b8:	49                   	dec    %ecx
    26b9:	4e                   	dec    %esi
    26ba:	5f                   	pop    %edi
    26bb:	45                   	inc    %ebp
    26bc:	58                   	pop    %eax
    26bd:	50                   	push   %eax
    26be:	5f                   	pop    %edi
    26bf:	5f                   	pop    %edi
    26c0:	20 28                	and    %ch,(%eax)
    26c2:	2d 31 32 35 29       	sub    $0x29353231,%eax
    26c7:	00 5f 5f             	add    %bl,0x5f(%edi)
    26ca:	55                   	push   %ebp
    26cb:	49                   	dec    %ecx
    26cc:	4e                   	dec    %esi
    26cd:	54                   	push   %esp
    26ce:	5f                   	pop    %edi
    26cf:	4c                   	dec    %esp
    26d0:	45                   	inc    %ebp
    26d1:	41                   	inc    %ecx
    26d2:	53                   	push   %ebx
    26d3:	54                   	push   %esp
    26d4:	33 32                	xor    (%edx),%esi
    26d6:	5f                   	pop    %edi
    26d7:	54                   	push   %esp
    26d8:	59                   	pop    %ecx
    26d9:	50                   	push   %eax
    26da:	45                   	inc    %ebp
    26db:	5f                   	pop    %edi
    26dc:	5f                   	pop    %edi
    26dd:	20 75 6e             	and    %dh,0x6e(%ebp)
    26e0:	73 69                	jae    274b <_GLOBAL_OFFSET_TABLE_+0x2237>
    26e2:	67 6e                	outsb  %ds:(%si),(%dx)
    26e4:	65 64 20 69 6e       	gs and %ch,%fs:0x6e(%ecx)
    26e9:	74 00                	je     26eb <_GLOBAL_OFFSET_TABLE_+0x21d7>
    26eb:	5f                   	pop    %edi
    26ec:	5f                   	pop    %edi
    26ed:	55                   	push   %ebp
    26ee:	49                   	dec    %ecx
    26ef:	4e                   	dec    %esi
    26f0:	54                   	push   %esp
    26f1:	5f                   	pop    %edi
    26f2:	46                   	inc    %esi
    26f3:	41                   	inc    %ecx
    26f4:	53                   	push   %ebx
    26f5:	54                   	push   %esp
    26f6:	36 34 5f             	ss xor $0x5f,%al
    26f9:	54                   	push   %esp
    26fa:	59                   	pop    %ecx
    26fb:	50                   	push   %eax
    26fc:	45                   	inc    %ebp
    26fd:	5f                   	pop    %edi
    26fe:	5f                   	pop    %edi
    26ff:	20 6c 6f 6e          	and    %ch,0x6e(%edi,%ebp,2)
    2703:	67 20 6c 6f          	and    %ch,0x6f(%si)
    2707:	6e                   	outsb  %ds:(%esi),(%dx)
    2708:	67 20 75 6e          	and    %dh,0x6e(%di)
    270c:	73 69                	jae    2777 <_GLOBAL_OFFSET_TABLE_+0x2263>
    270e:	67 6e                	outsb  %ds:(%si),(%dx)
    2710:	65 64 20 69 6e       	gs and %ch,%fs:0x6e(%ecx)
    2715:	74 00                	je     2717 <_GLOBAL_OFFSET_TABLE_+0x2203>
    2717:	5f                   	pop    %edi
    2718:	5f                   	pop    %edi
    2719:	55                   	push   %ebp
    271a:	49                   	dec    %ecx
    271b:	4e                   	dec    %esi
    271c:	54                   	push   %esp
    271d:	38 5f 43             	cmp    %bl,0x43(%edi)
    2720:	28 63 29             	sub    %ah,0x29(%ebx)
    2723:	20 63 00             	and    %ah,0x0(%ebx)
    2726:	5f                   	pop    %edi
    2727:	5f                   	pop    %edi
    2728:	46                   	inc    %esi
    2729:	4c                   	dec    %esp
    272a:	54                   	push   %esp
    272b:	31 32                	xor    %esi,(%edx)
    272d:	38 5f 44             	cmp    %bl,0x44(%edi)
    2730:	49                   	dec    %ecx
    2731:	47                   	inc    %edi
    2732:	5f                   	pop    %edi
    2733:	5f                   	pop    %edi
    2734:	20 33                	and    %dh,(%ebx)
    2736:	33 00                	xor    (%eax),%eax
    2738:	5f                   	pop    %edi
    2739:	5f                   	pop    %edi
    273a:	55                   	push   %ebp
    273b:	49                   	dec    %ecx
    273c:	4e                   	dec    %esi
    273d:	54                   	push   %esp
    273e:	5f                   	pop    %edi
    273f:	4c                   	dec    %esp
    2740:	45                   	inc    %ebp
    2741:	41                   	inc    %ecx
    2742:	53                   	push   %ebx
    2743:	54                   	push   %esp
    2744:	38 5f 54             	cmp    %bl,0x54(%edi)
    2747:	59                   	pop    %ecx
    2748:	50                   	push   %eax
    2749:	45                   	inc    %ebp
    274a:	5f                   	pop    %edi
    274b:	5f                   	pop    %edi
    274c:	20 75 6e             	and    %dh,0x6e(%ebp)
    274f:	73 69                	jae    27ba <_GLOBAL_OFFSET_TABLE_+0x22a6>
    2751:	67 6e                	outsb  %ds:(%si),(%dx)
    2753:	65 64 20 63 68       	gs and %ah,%fs:0x68(%ebx)
    2758:	61                   	popa   
    2759:	72 00                	jb     275b <_GLOBAL_OFFSET_TABLE_+0x2247>
    275b:	5f                   	pop    %edi
    275c:	5f                   	pop    %edi
    275d:	49                   	dec    %ecx
    275e:	4e                   	dec    %esi
    275f:	54                   	push   %esp
    2760:	5f                   	pop    %edi
    2761:	4c                   	dec    %esp
    2762:	45                   	inc    %ebp
    2763:	41                   	inc    %ecx
    2764:	53                   	push   %ebx
    2765:	54                   	push   %esp
    2766:	36 34 5f             	ss xor $0x5f,%al
    2769:	57                   	push   %edi
    276a:	49                   	dec    %ecx
    276b:	44                   	inc    %esp
    276c:	54                   	push   %esp
    276d:	48                   	dec    %eax
    276e:	5f                   	pop    %edi
    276f:	5f                   	pop    %edi
    2770:	20 36                	and    %dh,(%esi)
    2772:	34 00                	xor    $0x0,%al
    2774:	5f                   	pop    %edi
    2775:	5f                   	pop    %edi
    2776:	47                   	inc    %edi
    2777:	43                   	inc    %ebx
    2778:	43                   	inc    %ebx
    2779:	5f                   	pop    %edi
    277a:	48                   	dec    %eax
    277b:	41                   	inc    %ecx
    277c:	56                   	push   %esi
    277d:	45                   	inc    %ebp
    277e:	5f                   	pop    %edi
    277f:	53                   	push   %ebx
    2780:	59                   	pop    %ecx
    2781:	4e                   	dec    %esi
    2782:	43                   	inc    %ebx
    2783:	5f                   	pop    %edi
    2784:	43                   	inc    %ebx
    2785:	4f                   	dec    %edi
    2786:	4d                   	dec    %ebp
    2787:	50                   	push   %eax
    2788:	41                   	inc    %ecx
    2789:	52                   	push   %edx
    278a:	45                   	inc    %ebp
    278b:	5f                   	pop    %edi
    278c:	41                   	inc    %ecx
    278d:	4e                   	dec    %esi
    278e:	44                   	inc    %esp
    278f:	5f                   	pop    %edi
    2790:	53                   	push   %ebx
    2791:	57                   	push   %edi
    2792:	41                   	inc    %ecx
    2793:	50                   	push   %eax
    2794:	5f                   	pop    %edi
    2795:	31 20                	xor    %esp,(%eax)
    2797:	31 00                	xor    %eax,(%eax)
    2799:	6d                   	insl   (%dx),%es:(%edi)
    279a:	61                   	popa   
    279b:	69 6e 00 5f 5f 55 49 	imul   $0x49555f5f,0x0(%esi),%ebp
    27a2:	4e                   	dec    %esi
    27a3:	54                   	push   %esp
    27a4:	33 32                	xor    (%edx),%esi
    27a6:	5f                   	pop    %edi
    27a7:	4d                   	dec    %ebp
    27a8:	41                   	inc    %ecx
    27a9:	58                   	pop    %eax
    27aa:	5f                   	pop    %edi
    27ab:	5f                   	pop    %edi
    27ac:	20 30                	and    %dh,(%eax)
    27ae:	78 66                	js     2816 <_GLOBAL_OFFSET_TABLE_+0x2302>
    27b0:	66 66 66 66 66 66 66 	data16 data16 data16 data16 data16 data16 push %bp
    27b7:	55 
    27b8:	00 5f 5f             	add    %bl,0x5f(%edi)
    27bb:	47                   	inc    %edi
    27bc:	43                   	inc    %ebx
    27bd:	43                   	inc    %ebx
    27be:	5f                   	pop    %edi
    27bf:	48                   	dec    %eax
    27c0:	41                   	inc    %ecx
    27c1:	56                   	push   %esi
    27c2:	45                   	inc    %ebp
    27c3:	5f                   	pop    %edi
    27c4:	44                   	inc    %esp
    27c5:	57                   	push   %edi
    27c6:	41                   	inc    %ecx
    27c7:	52                   	push   %edx
    27c8:	46                   	inc    %esi
    27c9:	32 5f 43             	xor    0x43(%edi),%bl
    27cc:	46                   	inc    %esi
    27cd:	49                   	dec    %ecx
    27ce:	5f                   	pop    %edi
    27cf:	41                   	inc    %ecx
    27d0:	53                   	push   %ebx
    27d1:	4d                   	dec    %ebp
    27d2:	20 31                	and    %dh,(%ecx)
    27d4:	00 5f 5f             	add    %bl,0x5f(%edi)
    27d7:	6c                   	insb   (%dx),%es:(%edi)
    27d8:	69 6e 75 78 20 31 00 	imul   $0x312078,0x75(%esi),%ebp
    27df:	5f                   	pop    %edi
    27e0:	5f                   	pop    %edi
    27e1:	47                   	inc    %edi
    27e2:	43                   	inc    %ebx
    27e3:	43                   	inc    %ebx
    27e4:	5f                   	pop    %edi
    27e5:	41                   	inc    %ecx
    27e6:	54                   	push   %esp
    27e7:	4f                   	dec    %edi
    27e8:	4d                   	dec    %ebp
    27e9:	49                   	dec    %ecx
    27ea:	43                   	inc    %ebx
    27eb:	5f                   	pop    %edi
    27ec:	50                   	push   %eax
    27ed:	4f                   	dec    %edi
    27ee:	49                   	dec    %ecx
    27ef:	4e                   	dec    %esi
    27f0:	54                   	push   %esp
    27f1:	45                   	inc    %ebp
    27f2:	52                   	push   %edx
    27f3:	5f                   	pop    %edi
    27f4:	4c                   	dec    %esp
    27f5:	4f                   	dec    %edi
    27f6:	43                   	inc    %ebx
    27f7:	4b                   	dec    %ebx
    27f8:	5f                   	pop    %edi
    27f9:	46                   	inc    %esi
    27fa:	52                   	push   %edx
    27fb:	45                   	inc    %ebp
    27fc:	45                   	inc    %ebp
    27fd:	20 32                	and    %dh,(%edx)
    27ff:	00 5f 5f             	add    %bl,0x5f(%edi)
    2802:	49                   	dec    %ecx
    2803:	4e                   	dec    %esi
    2804:	54                   	push   %esp
    2805:	5f                   	pop    %edi
    2806:	4c                   	dec    %esp
    2807:	45                   	inc    %ebp
    2808:	41                   	inc    %ecx
    2809:	53                   	push   %ebx
    280a:	54                   	push   %esp
    280b:	38 5f 4d             	cmp    %bl,0x4d(%edi)
    280e:	41                   	inc    %ecx
    280f:	58                   	pop    %eax
    2810:	5f                   	pop    %edi
    2811:	5f                   	pop    %edi
    2812:	20 30                	and    %dh,(%eax)
    2814:	78 37                	js     284d <_GLOBAL_OFFSET_TABLE_+0x2339>
    2816:	66 00 5f 5f          	data16 add %bl,0x5f(%edi)
    281a:	55                   	push   %ebp
    281b:	49                   	dec    %ecx
    281c:	4e                   	dec    %esi
    281d:	54                   	push   %esp
    281e:	5f                   	pop    %edi
    281f:	4c                   	dec    %esp
    2820:	45                   	inc    %ebp
    2821:	41                   	inc    %ecx
    2822:	53                   	push   %ebx
    2823:	54                   	push   %esp
    2824:	36 34 5f             	ss xor $0x5f,%al
    2827:	4d                   	dec    %ebp
    2828:	41                   	inc    %ecx
    2829:	58                   	pop    %eax
    282a:	5f                   	pop    %edi
    282b:	5f                   	pop    %edi
    282c:	20 30                	and    %dh,(%eax)
    282e:	78 66                	js     2896 <_GLOBAL_OFFSET_TABLE_+0x2382>
    2830:	66 66 66 66 66 66 66 	data16 data16 data16 data16 data16 data16 data16 data16 data16 data16 data16 data16 data16 data16
    2837:	66 66 66 66 66 66 66 
    283e:	66 55                	push   %bp
    2840:	4c                   	dec    %esp
    2841:	4c                   	dec    %esp
    2842:	00 5f 5f             	add    %bl,0x5f(%edi)
    2845:	44                   	inc    %esp
    2846:	42                   	inc    %edx
    2847:	4c                   	dec    %esp
    2848:	5f                   	pop    %edi
    2849:	4d                   	dec    %ebp
    284a:	49                   	dec    %ecx
    284b:	4e                   	dec    %esi
    284c:	5f                   	pop    %edi
    284d:	31 30                	xor    %esi,(%eax)
    284f:	5f                   	pop    %edi
    2850:	45                   	inc    %ebp
    2851:	58                   	pop    %eax
    2852:	50                   	push   %eax
    2853:	5f                   	pop    %edi
    2854:	5f                   	pop    %edi
    2855:	20 28                	and    %ch,(%eax)
    2857:	2d 33 30 37 29       	sub    $0x29373033,%eax
    285c:	00 5f 5f             	add    %bl,0x5f(%edi)
    285f:	49                   	dec    %ecx
    2860:	4e                   	dec    %esi
    2861:	54                   	push   %esp
    2862:	33 32                	xor    (%edx),%esi
    2864:	5f                   	pop    %edi
    2865:	4d                   	dec    %ebp
    2866:	41                   	inc    %ecx
    2867:	58                   	pop    %eax
    2868:	5f                   	pop    %edi
    2869:	5f                   	pop    %edi
    286a:	20 30                	and    %dh,(%eax)
    286c:	78 37                	js     28a5 <_GLOBAL_OFFSET_TABLE_+0x2391>
    286e:	66 66 66 66 66 66 66 	data16 data16 data16 data16 data16 data16 data16 add %bl,0x5f(%edi)
    2875:	00 5f 5f 
    2878:	47                   	inc    %edi
    2879:	4e                   	dec    %esi
    287a:	55                   	push   %ebp
    287b:	43                   	inc    %ebx
    287c:	5f                   	pop    %edi
    287d:	53                   	push   %ebx
    287e:	54                   	push   %esp
    287f:	44                   	inc    %esp
    2880:	43                   	inc    %ebx
    2881:	5f                   	pop    %edi
    2882:	49                   	dec    %ecx
    2883:	4e                   	dec    %esi
    2884:	4c                   	dec    %esp
    2885:	49                   	dec    %ecx
    2886:	4e                   	dec    %esi
    2887:	45                   	inc    %ebp
    2888:	5f                   	pop    %edi
    2889:	5f                   	pop    %edi
    288a:	20 31                	and    %dh,(%ecx)
    288c:	00 5f 5f             	add    %bl,0x5f(%edi)
    288f:	46                   	inc    %esi
    2890:	4c                   	dec    %esp
    2891:	54                   	push   %esp
    2892:	36 34 5f             	ss xor $0x5f,%al
    2895:	4d                   	dec    %ebp
    2896:	41                   	inc    %ecx
    2897:	58                   	pop    %eax
    2898:	5f                   	pop    %edi
    2899:	31 30                	xor    %esi,(%eax)
    289b:	5f                   	pop    %edi
    289c:	45                   	inc    %ebp
    289d:	58                   	pop    %eax
    289e:	50                   	push   %eax
    289f:	5f                   	pop    %edi
    28a0:	5f                   	pop    %edi
    28a1:	20 33                	and    %dh,(%ebx)
    28a3:	30 38                	xor    %bh,(%eax)
    28a5:	00 5f 5f             	add    %bl,0x5f(%edi)
    28a8:	46                   	inc    %esi
    28a9:	4c                   	dec    %esp
    28aa:	54                   	push   %esp
    28ab:	5f                   	pop    %edi
    28ac:	4d                   	dec    %ebp
    28ad:	41                   	inc    %ecx
    28ae:	4e                   	dec    %esi
    28af:	54                   	push   %esp
    28b0:	5f                   	pop    %edi
    28b1:	44                   	inc    %esp
    28b2:	49                   	dec    %ecx
    28b3:	47                   	inc    %edi
    28b4:	5f                   	pop    %edi
    28b5:	5f                   	pop    %edi
    28b6:	20 32                	and    %dh,(%edx)
    28b8:	34 00                	xor    $0x0,%al

Disassembly of section .comment:

00000000 <.comment>:
   0:	47                   	inc    %edi
   1:	43                   	inc    %ebx
   2:	43                   	inc    %ebx
   3:	3a 20                	cmp    (%eax),%ah
   5:	28 55 62             	sub    %dl,0x62(%ebp)
   8:	75 6e                	jne    78 <main-0x488>
   a:	74 75                	je     81 <main-0x47f>
   c:	20 31                	and    %dh,(%ecx)
   e:	31 2e                	xor    %ebp,(%esi)
  10:	34 2e                	xor    $0x2e,%al
  12:	30 2d 31 75 62 75    	xor    %ch,0x75627531
  18:	6e                   	outsb  %ds:(%esi),(%dx)
  19:	74 75                	je     90 <main-0x470>
  1b:	31 7e 32             	xor    %edi,0x32(%esi)
  1e:	32 2e                	xor    (%esi),%ch
  20:	30 34 29             	xor    %dh,(%ecx,%ebp,1)
  23:	20 31                	and    %dh,(%ecx)
  25:	31 2e                	xor    %ebp,(%esi)
  27:	34 2e                	xor    $0x2e,%al
  29:	30 00                	xor    %al,(%eax)
